
rtthread.elf:     file format elf32-littlearm


Disassembly of section .text:

08020000 <g_pfnVectors>:
 8020000:	20000a08 	andcs	r0, r0, r8, lsl #20
 8020004:	08023e41 	stmdaeq	r2, {r0, r6, r9, sl, fp, ip, sp}
 8020008:	08023e8d 	stmdaeq	r2, {r0, r2, r3, r7, r9, sl, fp, ip, sp}
 802000c:	080202cb 	stmdaeq	r2, {r0, r1, r3, r6, r7, r9}
 8020010:	08023e8d 	stmdaeq	r2, {r0, r2, r3, r7, r9, sl, fp, ip, sp}
 8020014:	08023e8d 	stmdaeq	r2, {r0, r2, r3, r7, r9, sl, fp, ip, sp}
 8020018:	08023e8d 	stmdaeq	r2, {r0, r2, r3, r7, r9, sl, fp, ip, sp}
	...
 802002c:	08023e8d 	stmdaeq	r2, {r0, r2, r3, r7, r9, sl, fp, ip, sp}
 8020030:	08023e8d 	stmdaeq	r2, {r0, r2, r3, r7, r9, sl, fp, ip, sp}
 8020034:	00000000 	andeq	r0, r0, r0
 8020038:	08020213 	stmdaeq	r2, {r0, r1, r4, r9}
 802003c:	08024059 	stmdaeq	r2, {r0, r3, r4, r6, lr}
 8020040:	08023e8d 	stmdaeq	r2, {r0, r2, r3, r7, r9, sl, fp, ip, sp}
 8020044:	08023e8d 	stmdaeq	r2, {r0, r2, r3, r7, r9, sl, fp, ip, sp}
 8020048:	08023e8d 	stmdaeq	r2, {r0, r2, r3, r7, r9, sl, fp, ip, sp}
 802004c:	08023e8d 	stmdaeq	r2, {r0, r2, r3, r7, r9, sl, fp, ip, sp}
 8020050:	08023e8d 	stmdaeq	r2, {r0, r2, r3, r7, r9, sl, fp, ip, sp}
 8020054:	08023e8d 	stmdaeq	r2, {r0, r2, r3, r7, r9, sl, fp, ip, sp}
 8020058:	08023e8d 	stmdaeq	r2, {r0, r2, r3, r7, r9, sl, fp, ip, sp}
 802005c:	08023e8d 	stmdaeq	r2, {r0, r2, r3, r7, r9, sl, fp, ip, sp}
 8020060:	08023e8d 	stmdaeq	r2, {r0, r2, r3, r7, r9, sl, fp, ip, sp}
 8020064:	08023e8d 	stmdaeq	r2, {r0, r2, r3, r7, r9, sl, fp, ip, sp}
 8020068:	08023e8d 	stmdaeq	r2, {r0, r2, r3, r7, r9, sl, fp, ip, sp}
 802006c:	08023e8d 	stmdaeq	r2, {r0, r2, r3, r7, r9, sl, fp, ip, sp}
 8020070:	08023e8d 	stmdaeq	r2, {r0, r2, r3, r7, r9, sl, fp, ip, sp}
 8020074:	08023e8d 	stmdaeq	r2, {r0, r2, r3, r7, r9, sl, fp, ip, sp}
 8020078:	08023e8d 	stmdaeq	r2, {r0, r2, r3, r7, r9, sl, fp, ip, sp}
 802007c:	08023e8d 	stmdaeq	r2, {r0, r2, r3, r7, r9, sl, fp, ip, sp}
 8020080:	08023e8d 	stmdaeq	r2, {r0, r2, r3, r7, r9, sl, fp, ip, sp}
 8020084:	08023e8d 	stmdaeq	r2, {r0, r2, r3, r7, r9, sl, fp, ip, sp}
 8020088:	08023e8d 	stmdaeq	r2, {r0, r2, r3, r7, r9, sl, fp, ip, sp}
 802008c:	08023e8d 	stmdaeq	r2, {r0, r2, r3, r7, r9, sl, fp, ip, sp}
 8020090:	08023e8d 	stmdaeq	r2, {r0, r2, r3, r7, r9, sl, fp, ip, sp}
 8020094:	08023e8d 	stmdaeq	r2, {r0, r2, r3, r7, r9, sl, fp, ip, sp}
 8020098:	08023e8d 	stmdaeq	r2, {r0, r2, r3, r7, r9, sl, fp, ip, sp}
 802009c:	08023e8d 	stmdaeq	r2, {r0, r2, r3, r7, r9, sl, fp, ip, sp}
 80200a0:	08023e8d 	stmdaeq	r2, {r0, r2, r3, r7, r9, sl, fp, ip, sp}
 80200a4:	08023e8d 	stmdaeq	r2, {r0, r2, r3, r7, r9, sl, fp, ip, sp}
 80200a8:	08023e8d 	stmdaeq	r2, {r0, r2, r3, r7, r9, sl, fp, ip, sp}
 80200ac:	08023e8d 	stmdaeq	r2, {r0, r2, r3, r7, r9, sl, fp, ip, sp}
 80200b0:	08023e8d 	stmdaeq	r2, {r0, r2, r3, r7, r9, sl, fp, ip, sp}
 80200b4:	08023e8d 	stmdaeq	r2, {r0, r2, r3, r7, r9, sl, fp, ip, sp}
 80200b8:	08023e8d 	stmdaeq	r2, {r0, r2, r3, r7, r9, sl, fp, ip, sp}
 80200bc:	08023e8d 	stmdaeq	r2, {r0, r2, r3, r7, r9, sl, fp, ip, sp}
 80200c0:	08023e8d 	stmdaeq	r2, {r0, r2, r3, r7, r9, sl, fp, ip, sp}
 80200c4:	08023e8d 	stmdaeq	r2, {r0, r2, r3, r7, r9, sl, fp, ip, sp}
 80200c8:	08023e8d 	stmdaeq	r2, {r0, r2, r3, r7, r9, sl, fp, ip, sp}
 80200cc:	08023e8d 	stmdaeq	r2, {r0, r2, r3, r7, r9, sl, fp, ip, sp}
 80200d0:	08023e8d 	stmdaeq	r2, {r0, r2, r3, r7, r9, sl, fp, ip, sp}
 80200d4:	08023e8d 	stmdaeq	r2, {r0, r2, r3, r7, r9, sl, fp, ip, sp}
 80200d8:	08023e8d 	stmdaeq	r2, {r0, r2, r3, r7, r9, sl, fp, ip, sp}
 80200dc:	08023e8d 	stmdaeq	r2, {r0, r2, r3, r7, r9, sl, fp, ip, sp}
 80200e0:	08023e8d 	stmdaeq	r2, {r0, r2, r3, r7, r9, sl, fp, ip, sp}
 80200e4:	08023e8d 	stmdaeq	r2, {r0, r2, r3, r7, r9, sl, fp, ip, sp}
 80200e8:	08023e8d 	stmdaeq	r2, {r0, r2, r3, r7, r9, sl, fp, ip, sp}
 80200ec:	08023e8d 	stmdaeq	r2, {r0, r2, r3, r7, r9, sl, fp, ip, sp}
 80200f0:	08023e8d 	stmdaeq	r2, {r0, r2, r3, r7, r9, sl, fp, ip, sp}
 80200f4:	08023e8d 	stmdaeq	r2, {r0, r2, r3, r7, r9, sl, fp, ip, sp}
 80200f8:	08023e8d 	stmdaeq	r2, {r0, r2, r3, r7, r9, sl, fp, ip, sp}
 80200fc:	08023e8d 	stmdaeq	r2, {r0, r2, r3, r7, r9, sl, fp, ip, sp}
 8020100:	08023e8d 	stmdaeq	r2, {r0, r2, r3, r7, r9, sl, fp, ip, sp}
 8020104:	08023e8d 	stmdaeq	r2, {r0, r2, r3, r7, r9, sl, fp, ip, sp}
 8020108:	08023e8d 	stmdaeq	r2, {r0, r2, r3, r7, r9, sl, fp, ip, sp}
 802010c:	08023e8d 	stmdaeq	r2, {r0, r2, r3, r7, r9, sl, fp, ip, sp}
 8020110:	08023e8d 	stmdaeq	r2, {r0, r2, r3, r7, r9, sl, fp, ip, sp}
 8020114:	08023e8d 	stmdaeq	r2, {r0, r2, r3, r7, r9, sl, fp, ip, sp}
 8020118:	08023e8d 	stmdaeq	r2, {r0, r2, r3, r7, r9, sl, fp, ip, sp}
 802011c:	08023e8d 	stmdaeq	r2, {r0, r2, r3, r7, r9, sl, fp, ip, sp}
 8020120:	08023e8d 	stmdaeq	r2, {r0, r2, r3, r7, r9, sl, fp, ip, sp}
 8020124:	08023e8d 	stmdaeq	r2, {r0, r2, r3, r7, r9, sl, fp, ip, sp}
 8020128:	08023e8d 	stmdaeq	r2, {r0, r2, r3, r7, r9, sl, fp, ip, sp}
 802012c:	08023e8d 	stmdaeq	r2, {r0, r2, r3, r7, r9, sl, fp, ip, sp}
 8020130:	08023e8d 	stmdaeq	r2, {r0, r2, r3, r7, r9, sl, fp, ip, sp}
 8020134:	08023e8d 	stmdaeq	r2, {r0, r2, r3, r7, r9, sl, fp, ip, sp}
 8020138:	08023e8d 	stmdaeq	r2, {r0, r2, r3, r7, r9, sl, fp, ip, sp}
 802013c:	08023e8d 	stmdaeq	r2, {r0, r2, r3, r7, r9, sl, fp, ip, sp}
 8020140:	08023e8d 	stmdaeq	r2, {r0, r2, r3, r7, r9, sl, fp, ip, sp}
 8020144:	08023e8d 	stmdaeq	r2, {r0, r2, r3, r7, r9, sl, fp, ip, sp}
 8020148:	08023e8d 	stmdaeq	r2, {r0, r2, r3, r7, r9, sl, fp, ip, sp}
 802014c:	08023e8d 	stmdaeq	r2, {r0, r2, r3, r7, r9, sl, fp, ip, sp}
 8020150:	08023e8d 	stmdaeq	r2, {r0, r2, r3, r7, r9, sl, fp, ip, sp}
 8020154:	08023e8d 	stmdaeq	r2, {r0, r2, r3, r7, r9, sl, fp, ip, sp}
 8020158:	08023e8d 	stmdaeq	r2, {r0, r2, r3, r7, r9, sl, fp, ip, sp}
 802015c:	08023e8d 	stmdaeq	r2, {r0, r2, r3, r7, r9, sl, fp, ip, sp}
 8020160:	08023e8d 	stmdaeq	r2, {r0, r2, r3, r7, r9, sl, fp, ip, sp}
 8020164:	08023e8d 	stmdaeq	r2, {r0, r2, r3, r7, r9, sl, fp, ip, sp}
 8020168:	08023e8d 	stmdaeq	r2, {r0, r2, r3, r7, r9, sl, fp, ip, sp}
 802016c:	08023e8d 	stmdaeq	r2, {r0, r2, r3, r7, r9, sl, fp, ip, sp}
 8020170:	08023e8d 	stmdaeq	r2, {r0, r2, r3, r7, r9, sl, fp, ip, sp}
 8020174:	08023e8d 	stmdaeq	r2, {r0, r2, r3, r7, r9, sl, fp, ip, sp}
 8020178:	08023e8d 	stmdaeq	r2, {r0, r2, r3, r7, r9, sl, fp, ip, sp}
 802017c:	00000000 	andeq	r0, r0, r0
 8020180:	08023e8d 	stmdaeq	r2, {r0, r2, r3, r7, r9, sl, fp, ip, sp}
 8020184:	08023e8d 	stmdaeq	r2, {r0, r2, r3, r7, r9, sl, fp, ip, sp}

08020188 <__do_global_dtors_aux>:
 8020188:	b510      	push	{r4, lr}
 802018a:	4c05      	ldr	r4, [pc, #20]	; (80201a0 <__do_global_dtors_aux+0x18>)
 802018c:	7823      	ldrb	r3, [r4, #0]
 802018e:	b933      	cbnz	r3, 802019e <__do_global_dtors_aux+0x16>
 8020190:	4b04      	ldr	r3, [pc, #16]	; (80201a4 <__do_global_dtors_aux+0x1c>)
 8020192:	b113      	cbz	r3, 802019a <__do_global_dtors_aux+0x12>
 8020194:	4804      	ldr	r0, [pc, #16]	; (80201a8 <__do_global_dtors_aux+0x20>)
 8020196:	f3af 8000 	nop.w
 802019a:	2301      	movs	r3, #1
 802019c:	7023      	strb	r3, [r4, #0]
 802019e:	bd10      	pop	{r4, pc}
 80201a0:	20000a08 	andcs	r0, r0, r8, lsl #20
 80201a4:	00000000 	andeq	r0, r0, r0
 80201a8:	08025688 	stmdaeq	r2, {r3, r7, r9, sl, ip, lr}

080201ac <frame_dummy>:
 80201ac:	4b08      	ldr	r3, [pc, #32]	; (80201d0 <frame_dummy+0x24>)
 80201ae:	b510      	push	{r4, lr}
 80201b0:	b11b      	cbz	r3, 80201ba <frame_dummy+0xe>
 80201b2:	4908      	ldr	r1, [pc, #32]	; (80201d4 <frame_dummy+0x28>)
 80201b4:	4808      	ldr	r0, [pc, #32]	; (80201d8 <frame_dummy+0x2c>)
 80201b6:	f3af 8000 	nop.w
 80201ba:	4808      	ldr	r0, [pc, #32]	; (80201dc <frame_dummy+0x30>)
 80201bc:	6803      	ldr	r3, [r0, #0]
 80201be:	b903      	cbnz	r3, 80201c2 <frame_dummy+0x16>
 80201c0:	bd10      	pop	{r4, pc}
 80201c2:	4b07      	ldr	r3, [pc, #28]	; (80201e0 <frame_dummy+0x34>)
 80201c4:	2b00      	cmp	r3, #0
 80201c6:	d0fb      	beq.n	80201c0 <frame_dummy+0x14>
 80201c8:	e8bd 4010 	ldmia.w	sp!, {r4, lr}
 80201cc:	4718      	bx	r3
 80201ce:	bf00      	nop
 80201d0:	00000000 	andeq	r0, r0, r0
 80201d4:	20000a0c 	andcs	r0, r0, ip, lsl #20
 80201d8:	08025688 	stmdaeq	r2, {r3, r7, r9, sl, ip, lr}
 80201dc:	20000608 	andcs	r0, r0, r8, lsl #12
 80201e0:	00000000 	andeq	r0, r0, r0

080201e4 <rt_hw_interrupt_disable>:
 80201e4:	f3ef 8010 	mrs	r0, PRIMASK
 80201e8:	b672      	cpsid	i
 80201ea:	4770      	bx	lr

080201ec <rt_hw_interrupt_enable>:
 80201ec:	f380 8810 	msr	PRIMASK, r0
 80201f0:	4770      	bx	lr

080201f2 <rt_hw_context_switch>:
 80201f2:	4a44      	ldr	r2, [pc, #272]	; (8020304 <_update_done+0x10>)
 80201f4:	6813      	ldr	r3, [r2, #0]
 80201f6:	2b01      	cmp	r3, #1
 80201f8:	d004      	beq.n	8020204 <_reswitch>
 80201fa:	f04f 0301 	mov.w	r3, #1
 80201fe:	6013      	str	r3, [r2, #0]
 8020200:	4a41      	ldr	r2, [pc, #260]	; (8020308 <_update_done+0x14>)
 8020202:	6010      	str	r0, [r2, #0]

08020204 <_reswitch>:
 8020204:	4a41      	ldr	r2, [pc, #260]	; (802030c <_update_done+0x18>)
 8020206:	6011      	str	r1, [r2, #0]
 8020208:	4841      	ldr	r0, [pc, #260]	; (8020310 <_update_done+0x1c>)
 802020a:	f04f 5180 	mov.w	r1, #268435456	; 0x10000000
 802020e:	6001      	str	r1, [r0, #0]
 8020210:	4770      	bx	lr

08020212 <PendSV_Handler>:
 8020212:	f3ef 8210 	mrs	r2, PRIMASK
 8020216:	b672      	cpsid	i
 8020218:	483a      	ldr	r0, [pc, #232]	; (8020304 <_update_done+0x10>)
 802021a:	6801      	ldr	r1, [r0, #0]
 802021c:	b351      	cbz	r1, 8020274 <pendsv_exit>
 802021e:	f04f 0100 	mov.w	r1, #0
 8020222:	6001      	str	r1, [r0, #0]
 8020224:	4838      	ldr	r0, [pc, #224]	; (8020308 <_update_done+0x14>)
 8020226:	6801      	ldr	r1, [r0, #0]
 8020228:	b191      	cbz	r1, 8020250 <switch_to_thread>
 802022a:	f3ef 8109 	mrs	r1, PSP
 802022e:	f01e 0f10 	tst.w	lr, #16
 8020232:	bf08      	it	eq
 8020234:	ed21 8b10 	vstmdbeq	r1!, {d8-d15}
 8020238:	e921 0ff0 	stmdb	r1!, {r4, r5, r6, r7, r8, r9, sl, fp}
 802023c:	f04f 0400 	mov.w	r4, #0
 8020240:	f01e 0f10 	tst.w	lr, #16
 8020244:	bf08      	it	eq
 8020246:	2401      	moveq	r4, #1
 8020248:	f841 4d04 	str.w	r4, [r1, #-4]!
 802024c:	6800      	ldr	r0, [r0, #0]
 802024e:	6001      	str	r1, [r0, #0]

08020250 <switch_to_thread>:
 8020250:	492e      	ldr	r1, [pc, #184]	; (802030c <_update_done+0x18>)
 8020252:	6809      	ldr	r1, [r1, #0]
 8020254:	6809      	ldr	r1, [r1, #0]
 8020256:	c908      	ldmia	r1!, {r3}
 8020258:	e8b1 0ff0 	ldmia.w	r1!, {r4, r5, r6, r7, r8, r9, sl, fp}
 802025c:	2b00      	cmp	r3, #0
 802025e:	bf18      	it	ne
 8020260:	ecb1 8b10 	vldmiane	r1!, {d8-d15}
 8020264:	f381 8809 	msr	PSP, r1
 8020268:	f04e 0e10 	orr.w	lr, lr, #16
 802026c:	2b00      	cmp	r3, #0
 802026e:	bf18      	it	ne
 8020270:	f02e 0e10 	bicne.w	lr, lr, #16

08020274 <pendsv_exit>:
 8020274:	f382 8810 	msr	PRIMASK, r2
 8020278:	f04e 0e04 	orr.w	lr, lr, #4
 802027c:	4770      	bx	lr

0802027e <rt_hw_context_switch_to>:
 802027e:	4923      	ldr	r1, [pc, #140]	; (802030c <_update_done+0x18>)
 8020280:	6008      	str	r0, [r1, #0]
 8020282:	f3ef 8214 	mrs	r2, CONTROL
 8020286:	f022 0204 	bic.w	r2, r2, #4
 802028a:	f382 8814 	msr	CONTROL, r2
 802028e:	491e      	ldr	r1, [pc, #120]	; (8020308 <_update_done+0x14>)
 8020290:	f04f 0000 	mov.w	r0, #0
 8020294:	6008      	str	r0, [r1, #0]
 8020296:	491b      	ldr	r1, [pc, #108]	; (8020304 <_update_done+0x10>)
 8020298:	f04f 0001 	mov.w	r0, #1
 802029c:	6008      	str	r0, [r1, #0]
 802029e:	481d      	ldr	r0, [pc, #116]	; (8020314 <_update_done+0x20>)
 80202a0:	f44f 017f 	mov.w	r1, #16711680	; 0xff0000
 80202a4:	f8d0 2000 	ldr.w	r2, [r0]
 80202a8:	ea41 0102 	orr.w	r1, r1, r2
 80202ac:	6001      	str	r1, [r0, #0]
 80202ae:	4818      	ldr	r0, [pc, #96]	; (8020310 <_update_done+0x1c>)
 80202b0:	f04f 5180 	mov.w	r1, #268435456	; 0x10000000
 80202b4:	6001      	str	r1, [r0, #0]
 80202b6:	4818      	ldr	r0, [pc, #96]	; (8020318 <_update_done+0x24>)
 80202b8:	6800      	ldr	r0, [r0, #0]
 80202ba:	6800      	ldr	r0, [r0, #0]
 80202bc:	bf00      	nop
 80202be:	f380 8808 	msr	MSP, r0
 80202c2:	b661      	cpsie	f
 80202c4:	b662      	cpsie	i

080202c6 <rt_hw_interrupt_thread_switch>:
 80202c6:	4770      	bx	lr
 80202c8:	bf00      	nop

080202ca <HardFault_Handler>:
 80202ca:	f3ef 8008 	mrs	r0, MSP
 80202ce:	f01e 0f04 	tst.w	lr, #4
 80202d2:	d001      	beq.n	80202d8 <_get_sp_done>
 80202d4:	f3ef 8009 	mrs	r0, PSP

080202d8 <_get_sp_done>:
 80202d8:	e920 0ff0 	stmdb	r0!, {r4, r5, r6, r7, r8, r9, sl, fp}
 80202dc:	f840 ed04 	str.w	lr, [r0, #-4]!
 80202e0:	f840 ed04 	str.w	lr, [r0, #-4]!
 80202e4:	f01e 0f04 	tst.w	lr, #4
 80202e8:	d002      	beq.n	80202f0 <_update_msp>
 80202ea:	f380 8809 	msr	PSP, r0
 80202ee:	e001      	b.n	80202f4 <_update_done>

080202f0 <_update_msp>:
 80202f0:	f380 8808 	msr	MSP, r0

080202f4 <_update_done>:
 80202f4:	b500      	push	{lr}
 80202f6:	f002 faa7 	bl	8022848 <rt_hw_hard_fault_exception>
 80202fa:	f85d eb04 	ldr.w	lr, [sp], #4
 80202fe:	f04e 0e04 	orr.w	lr, lr, #4
 8020302:	4770      	bx	lr
 8020304:	20001694 	mulcs	r0, r4, r6
 8020308:	20001690 	mulcs	r0, r0, r6
 802030c:	2000168c 	andcs	r1, r0, ip, lsl #13
 8020310:	e000ed04 	and	lr, r0, r4, lsl #26
 8020314:	e000ed20 	and	lr, r0, r0, lsr #26
 8020318:	e000ed08 	and	lr, r0, r8, lsl #26

0802031c <__aeabi_uldivmod>:
 802031c:	b953      	cbnz	r3, 8020334 <__aeabi_uldivmod+0x18>
 802031e:	b94a      	cbnz	r2, 8020334 <__aeabi_uldivmod+0x18>
 8020320:	2900      	cmp	r1, #0
 8020322:	bf08      	it	eq
 8020324:	2800      	cmpeq	r0, #0
 8020326:	bf1c      	itt	ne
 8020328:	f04f 31ff 	movne.w	r1, #4294967295	; 0xffffffff
 802032c:	f04f 30ff 	movne.w	r0, #4294967295	; 0xffffffff
 8020330:	f000 b97e 	b.w	8020630 <__aeabi_idiv0>
 8020334:	f1ad 0c08 	sub.w	ip, sp, #8
 8020338:	e96d ce04 	strd	ip, lr, [sp, #-16]!
 802033c:	f000 f806 	bl	802034c <__udivmoddi4>
 8020340:	f8dd e004 	ldr.w	lr, [sp, #4]
 8020344:	e9dd 2302 	ldrd	r2, r3, [sp, #8]
 8020348:	b004      	add	sp, #16
 802034a:	4770      	bx	lr

0802034c <__udivmoddi4>:
 802034c:	e92d 47f0 	stmdb	sp!, {r4, r5, r6, r7, r8, r9, sl, lr}
 8020350:	468c      	mov	ip, r1
 8020352:	460e      	mov	r6, r1
 8020354:	4604      	mov	r4, r0
 8020356:	9d08      	ldr	r5, [sp, #32]
 8020358:	2b00      	cmp	r3, #0
 802035a:	d150      	bne.n	80203fe <__udivmoddi4+0xb2>
 802035c:	428a      	cmp	r2, r1
 802035e:	4617      	mov	r7, r2
 8020360:	d96c      	bls.n	802043c <__udivmoddi4+0xf0>
 8020362:	fab2 fe82 	clz	lr, r2
 8020366:	f1be 0f00 	cmp.w	lr, #0
 802036a:	d00b      	beq.n	8020384 <__udivmoddi4+0x38>
 802036c:	f1ce 0420 	rsb	r4, lr, #32
 8020370:	fa20 f404 	lsr.w	r4, r0, r4
 8020374:	fa01 f60e 	lsl.w	r6, r1, lr
 8020378:	ea44 0c06 	orr.w	ip, r4, r6
 802037c:	fa02 f70e 	lsl.w	r7, r2, lr
 8020380:	fa00 f40e 	lsl.w	r4, r0, lr
 8020384:	ea4f 4917 	mov.w	r9, r7, lsr #16
 8020388:	0c22      	lsrs	r2, r4, #16
 802038a:	fbbc f0f9 	udiv	r0, ip, r9
 802038e:	fa1f f887 	uxth.w	r8, r7
 8020392:	fb09 c610 	mls	r6, r9, r0, ip
 8020396:	ea42 4606 	orr.w	r6, r2, r6, lsl #16
 802039a:	fb00 f308 	mul.w	r3, r0, r8
 802039e:	42b3      	cmp	r3, r6
 80203a0:	d909      	bls.n	80203b6 <__udivmoddi4+0x6a>
 80203a2:	19f6      	adds	r6, r6, r7
 80203a4:	f100 32ff 	add.w	r2, r0, #4294967295	; 0xffffffff
 80203a8:	f080 8122 	bcs.w	80205f0 <__udivmoddi4+0x2a4>
 80203ac:	42b3      	cmp	r3, r6
 80203ae:	f240 811f 	bls.w	80205f0 <__udivmoddi4+0x2a4>
 80203b2:	3802      	subs	r0, #2
 80203b4:	443e      	add	r6, r7
 80203b6:	1af6      	subs	r6, r6, r3
 80203b8:	b2a2      	uxth	r2, r4
 80203ba:	fbb6 f3f9 	udiv	r3, r6, r9
 80203be:	fb09 6613 	mls	r6, r9, r3, r6
 80203c2:	ea42 4406 	orr.w	r4, r2, r6, lsl #16
 80203c6:	fb03 f808 	mul.w	r8, r3, r8
 80203ca:	45a0      	cmp	r8, r4
 80203cc:	d909      	bls.n	80203e2 <__udivmoddi4+0x96>
 80203ce:	19e4      	adds	r4, r4, r7
 80203d0:	f103 32ff 	add.w	r2, r3, #4294967295	; 0xffffffff
 80203d4:	f080 810a 	bcs.w	80205ec <__udivmoddi4+0x2a0>
 80203d8:	45a0      	cmp	r8, r4
 80203da:	f240 8107 	bls.w	80205ec <__udivmoddi4+0x2a0>
 80203de:	3b02      	subs	r3, #2
 80203e0:	443c      	add	r4, r7
 80203e2:	ebc8 0404 	rsb	r4, r8, r4
 80203e6:	ea43 4000 	orr.w	r0, r3, r0, lsl #16
 80203ea:	2100      	movs	r1, #0
 80203ec:	2d00      	cmp	r5, #0
 80203ee:	d062      	beq.n	80204b6 <__udivmoddi4+0x16a>
 80203f0:	fa24 f40e 	lsr.w	r4, r4, lr
 80203f4:	2300      	movs	r3, #0
 80203f6:	602c      	str	r4, [r5, #0]
 80203f8:	606b      	str	r3, [r5, #4]
 80203fa:	e8bd 87f0 	ldmia.w	sp!, {r4, r5, r6, r7, r8, r9, sl, pc}
 80203fe:	428b      	cmp	r3, r1
 8020400:	d907      	bls.n	8020412 <__udivmoddi4+0xc6>
 8020402:	2d00      	cmp	r5, #0
 8020404:	d055      	beq.n	80204b2 <__udivmoddi4+0x166>
 8020406:	2100      	movs	r1, #0
 8020408:	e885 0041 	stmia.w	r5, {r0, r6}
 802040c:	4608      	mov	r0, r1
 802040e:	e8bd 87f0 	ldmia.w	sp!, {r4, r5, r6, r7, r8, r9, sl, pc}
 8020412:	fab3 f183 	clz	r1, r3
 8020416:	2900      	cmp	r1, #0
 8020418:	f040 8090 	bne.w	802053c <__udivmoddi4+0x1f0>
 802041c:	42b3      	cmp	r3, r6
 802041e:	d302      	bcc.n	8020426 <__udivmoddi4+0xda>
 8020420:	4282      	cmp	r2, r0
 8020422:	f200 80f8 	bhi.w	8020616 <__udivmoddi4+0x2ca>
 8020426:	1a84      	subs	r4, r0, r2
 8020428:	eb66 0603 	sbc.w	r6, r6, r3
 802042c:	2001      	movs	r0, #1
 802042e:	46b4      	mov	ip, r6
 8020430:	2d00      	cmp	r5, #0
 8020432:	d040      	beq.n	80204b6 <__udivmoddi4+0x16a>
 8020434:	e885 1010 	stmia.w	r5, {r4, ip}
 8020438:	e8bd 87f0 	ldmia.w	sp!, {r4, r5, r6, r7, r8, r9, sl, pc}
 802043c:	b912      	cbnz	r2, 8020444 <__udivmoddi4+0xf8>
 802043e:	2701      	movs	r7, #1
 8020440:	fbb7 f7f2 	udiv	r7, r7, r2
 8020444:	fab7 fe87 	clz	lr, r7
 8020448:	f1be 0f00 	cmp.w	lr, #0
 802044c:	d135      	bne.n	80204ba <__udivmoddi4+0x16e>
 802044e:	1bf3      	subs	r3, r6, r7
 8020450:	ea4f 4817 	mov.w	r8, r7, lsr #16
 8020454:	fa1f fc87 	uxth.w	ip, r7
 8020458:	2101      	movs	r1, #1
 802045a:	fbb3 f0f8 	udiv	r0, r3, r8
 802045e:	0c22      	lsrs	r2, r4, #16
 8020460:	fb08 3610 	mls	r6, r8, r0, r3
 8020464:	ea42 4606 	orr.w	r6, r2, r6, lsl #16
 8020468:	fb0c f300 	mul.w	r3, ip, r0
 802046c:	42b3      	cmp	r3, r6
 802046e:	d907      	bls.n	8020480 <__udivmoddi4+0x134>
 8020470:	19f6      	adds	r6, r6, r7
 8020472:	f100 32ff 	add.w	r2, r0, #4294967295	; 0xffffffff
 8020476:	d202      	bcs.n	802047e <__udivmoddi4+0x132>
 8020478:	42b3      	cmp	r3, r6
 802047a:	f200 80ce 	bhi.w	802061a <__udivmoddi4+0x2ce>
 802047e:	4610      	mov	r0, r2
 8020480:	1af6      	subs	r6, r6, r3
 8020482:	b2a2      	uxth	r2, r4
 8020484:	fbb6 f3f8 	udiv	r3, r6, r8
 8020488:	fb08 6613 	mls	r6, r8, r3, r6
 802048c:	ea42 4406 	orr.w	r4, r2, r6, lsl #16
 8020490:	fb0c fc03 	mul.w	ip, ip, r3
 8020494:	45a4      	cmp	ip, r4
 8020496:	d907      	bls.n	80204a8 <__udivmoddi4+0x15c>
 8020498:	19e4      	adds	r4, r4, r7
 802049a:	f103 32ff 	add.w	r2, r3, #4294967295	; 0xffffffff
 802049e:	d202      	bcs.n	80204a6 <__udivmoddi4+0x15a>
 80204a0:	45a4      	cmp	ip, r4
 80204a2:	f200 80b5 	bhi.w	8020610 <__udivmoddi4+0x2c4>
 80204a6:	4613      	mov	r3, r2
 80204a8:	ebcc 0404 	rsb	r4, ip, r4
 80204ac:	ea43 4000 	orr.w	r0, r3, r0, lsl #16
 80204b0:	e79c      	b.n	80203ec <__udivmoddi4+0xa0>
 80204b2:	4629      	mov	r1, r5
 80204b4:	4628      	mov	r0, r5
 80204b6:	e8bd 87f0 	ldmia.w	sp!, {r4, r5, r6, r7, r8, r9, sl, pc}
 80204ba:	f1ce 0120 	rsb	r1, lr, #32
 80204be:	fa06 f30e 	lsl.w	r3, r6, lr
 80204c2:	fa07 f70e 	lsl.w	r7, r7, lr
 80204c6:	fa20 f901 	lsr.w	r9, r0, r1
 80204ca:	ea4f 4817 	mov.w	r8, r7, lsr #16
 80204ce:	40ce      	lsrs	r6, r1
 80204d0:	ea49 0903 	orr.w	r9, r9, r3
 80204d4:	fbb6 faf8 	udiv	sl, r6, r8
 80204d8:	ea4f 4419 	mov.w	r4, r9, lsr #16
 80204dc:	fb08 661a 	mls	r6, r8, sl, r6
 80204e0:	fa1f fc87 	uxth.w	ip, r7
 80204e4:	ea44 4306 	orr.w	r3, r4, r6, lsl #16
 80204e8:	fb0a f20c 	mul.w	r2, sl, ip
 80204ec:	429a      	cmp	r2, r3
 80204ee:	fa00 f40e 	lsl.w	r4, r0, lr
 80204f2:	d90a      	bls.n	802050a <__udivmoddi4+0x1be>
 80204f4:	19db      	adds	r3, r3, r7
 80204f6:	f10a 31ff 	add.w	r1, sl, #4294967295	; 0xffffffff
 80204fa:	f080 8087 	bcs.w	802060c <__udivmoddi4+0x2c0>
 80204fe:	429a      	cmp	r2, r3
 8020500:	f240 8084 	bls.w	802060c <__udivmoddi4+0x2c0>
 8020504:	f1aa 0a02 	sub.w	sl, sl, #2
 8020508:	443b      	add	r3, r7
 802050a:	1a9b      	subs	r3, r3, r2
 802050c:	fa1f f989 	uxth.w	r9, r9
 8020510:	fbb3 f1f8 	udiv	r1, r3, r8
 8020514:	fb08 3311 	mls	r3, r8, r1, r3
 8020518:	ea49 4303 	orr.w	r3, r9, r3, lsl #16
 802051c:	fb01 f60c 	mul.w	r6, r1, ip
 8020520:	429e      	cmp	r6, r3
 8020522:	d907      	bls.n	8020534 <__udivmoddi4+0x1e8>
 8020524:	19db      	adds	r3, r3, r7
 8020526:	f101 32ff 	add.w	r2, r1, #4294967295	; 0xffffffff
 802052a:	d26b      	bcs.n	8020604 <__udivmoddi4+0x2b8>
 802052c:	429e      	cmp	r6, r3
 802052e:	d969      	bls.n	8020604 <__udivmoddi4+0x2b8>
 8020530:	3902      	subs	r1, #2
 8020532:	443b      	add	r3, r7
 8020534:	1b9b      	subs	r3, r3, r6
 8020536:	ea41 410a 	orr.w	r1, r1, sl, lsl #16
 802053a:	e78e      	b.n	802045a <__udivmoddi4+0x10e>
 802053c:	f1c1 0e20 	rsb	lr, r1, #32
 8020540:	fa22 f40e 	lsr.w	r4, r2, lr
 8020544:	408b      	lsls	r3, r1
 8020546:	4323      	orrs	r3, r4
 8020548:	fa20 f70e 	lsr.w	r7, r0, lr
 802054c:	fa06 f401 	lsl.w	r4, r6, r1
 8020550:	ea4f 4c13 	mov.w	ip, r3, lsr #16
 8020554:	fa26 f60e 	lsr.w	r6, r6, lr
 8020558:	433c      	orrs	r4, r7
 802055a:	fbb6 f9fc 	udiv	r9, r6, ip
 802055e:	0c27      	lsrs	r7, r4, #16
 8020560:	fb0c 6619 	mls	r6, ip, r9, r6
 8020564:	fa1f f883 	uxth.w	r8, r3
 8020568:	ea47 4606 	orr.w	r6, r7, r6, lsl #16
 802056c:	fb09 f708 	mul.w	r7, r9, r8
 8020570:	42b7      	cmp	r7, r6
 8020572:	fa02 f201 	lsl.w	r2, r2, r1
 8020576:	fa00 fa01 	lsl.w	sl, r0, r1
 802057a:	d908      	bls.n	802058e <__udivmoddi4+0x242>
 802057c:	18f6      	adds	r6, r6, r3
 802057e:	f109 30ff 	add.w	r0, r9, #4294967295	; 0xffffffff
 8020582:	d241      	bcs.n	8020608 <__udivmoddi4+0x2bc>
 8020584:	42b7      	cmp	r7, r6
 8020586:	d93f      	bls.n	8020608 <__udivmoddi4+0x2bc>
 8020588:	f1a9 0902 	sub.w	r9, r9, #2
 802058c:	441e      	add	r6, r3
 802058e:	1bf6      	subs	r6, r6, r7
 8020590:	b2a0      	uxth	r0, r4
 8020592:	fbb6 f4fc 	udiv	r4, r6, ip
 8020596:	fb0c 6614 	mls	r6, ip, r4, r6
 802059a:	ea40 4706 	orr.w	r7, r0, r6, lsl #16
 802059e:	fb04 f808 	mul.w	r8, r4, r8
 80205a2:	45b8      	cmp	r8, r7
 80205a4:	d907      	bls.n	80205b6 <__udivmoddi4+0x26a>
 80205a6:	18ff      	adds	r7, r7, r3
 80205a8:	f104 30ff 	add.w	r0, r4, #4294967295	; 0xffffffff
 80205ac:	d228      	bcs.n	8020600 <__udivmoddi4+0x2b4>
 80205ae:	45b8      	cmp	r8, r7
 80205b0:	d926      	bls.n	8020600 <__udivmoddi4+0x2b4>
 80205b2:	3c02      	subs	r4, #2
 80205b4:	441f      	add	r7, r3
 80205b6:	ea44 4009 	orr.w	r0, r4, r9, lsl #16
 80205ba:	ebc8 0707 	rsb	r7, r8, r7
 80205be:	fba0 8902 	umull	r8, r9, r0, r2
 80205c2:	454f      	cmp	r7, r9
 80205c4:	4644      	mov	r4, r8
 80205c6:	464e      	mov	r6, r9
 80205c8:	d314      	bcc.n	80205f4 <__udivmoddi4+0x2a8>
 80205ca:	d029      	beq.n	8020620 <__udivmoddi4+0x2d4>
 80205cc:	b365      	cbz	r5, 8020628 <__udivmoddi4+0x2dc>
 80205ce:	ebba 0304 	subs.w	r3, sl, r4
 80205d2:	eb67 0706 	sbc.w	r7, r7, r6
 80205d6:	fa07 fe0e 	lsl.w	lr, r7, lr
 80205da:	40cb      	lsrs	r3, r1
 80205dc:	40cf      	lsrs	r7, r1
 80205de:	ea4e 0303 	orr.w	r3, lr, r3
 80205e2:	e885 0088 	stmia.w	r5, {r3, r7}
 80205e6:	2100      	movs	r1, #0
 80205e8:	e8bd 87f0 	ldmia.w	sp!, {r4, r5, r6, r7, r8, r9, sl, pc}
 80205ec:	4613      	mov	r3, r2
 80205ee:	e6f8      	b.n	80203e2 <__udivmoddi4+0x96>
 80205f0:	4610      	mov	r0, r2
 80205f2:	e6e0      	b.n	80203b6 <__udivmoddi4+0x6a>
 80205f4:	ebb8 0402 	subs.w	r4, r8, r2
 80205f8:	eb69 0603 	sbc.w	r6, r9, r3
 80205fc:	3801      	subs	r0, #1
 80205fe:	e7e5      	b.n	80205cc <__udivmoddi4+0x280>
 8020600:	4604      	mov	r4, r0
 8020602:	e7d8      	b.n	80205b6 <__udivmoddi4+0x26a>
 8020604:	4611      	mov	r1, r2
 8020606:	e795      	b.n	8020534 <__udivmoddi4+0x1e8>
 8020608:	4681      	mov	r9, r0
 802060a:	e7c0      	b.n	802058e <__udivmoddi4+0x242>
 802060c:	468a      	mov	sl, r1
 802060e:	e77c      	b.n	802050a <__udivmoddi4+0x1be>
 8020610:	3b02      	subs	r3, #2
 8020612:	443c      	add	r4, r7
 8020614:	e748      	b.n	80204a8 <__udivmoddi4+0x15c>
 8020616:	4608      	mov	r0, r1
 8020618:	e70a      	b.n	8020430 <__udivmoddi4+0xe4>
 802061a:	3802      	subs	r0, #2
 802061c:	443e      	add	r6, r7
 802061e:	e72f      	b.n	8020480 <__udivmoddi4+0x134>
 8020620:	45c2      	cmp	sl, r8
 8020622:	d3e7      	bcc.n	80205f4 <__udivmoddi4+0x2a8>
 8020624:	463e      	mov	r6, r7
 8020626:	e7d1      	b.n	80205cc <__udivmoddi4+0x280>
 8020628:	4629      	mov	r1, r5
 802062a:	e8bd 87f0 	ldmia.w	sp!, {r4, r5, r6, r7, r8, r9, sl, pc}
 802062e:	bf00      	nop

08020630 <__aeabi_idiv0>:
 8020630:	4770      	bx	lr
 8020632:	bf00      	nop

08020634 <rt_tick_get>:
 8020634:	b480      	push	{r7}
 8020636:	af00      	add	r7, sp, #0
 8020638:	4b03      	ldr	r3, [pc, #12]	; (8020648 <rt_tick_get+0x14>)
 802063a:	681b      	ldr	r3, [r3, #0]
 802063c:	4618      	mov	r0, r3
 802063e:	46bd      	mov	sp, r7
 8020640:	f85d 7b04 	ldr.w	r7, [sp], #4
 8020644:	4770      	bx	lr
 8020646:	bf00      	nop
 8020648:	20000a24 	andcs	r0, r0, r4, lsr #20

0802064c <rt_tick_increase>:
 802064c:	b580      	push	{r7, lr}
 802064e:	b082      	sub	sp, #8
 8020650:	af00      	add	r7, sp, #0
 8020652:	4b0e      	ldr	r3, [pc, #56]	; (802068c <rt_tick_increase+0x40>)
 8020654:	681b      	ldr	r3, [r3, #0]
 8020656:	3301      	adds	r3, #1
 8020658:	4a0c      	ldr	r2, [pc, #48]	; (802068c <rt_tick_increase+0x40>)
 802065a:	6013      	str	r3, [r2, #0]
 802065c:	f001 fbb6 	bl	8021dcc <rt_thread_self>
 8020660:	6078      	str	r0, [r7, #4]
 8020662:	687b      	ldr	r3, [r7, #4]
 8020664:	6c1b      	ldr	r3, [r3, #64]	; 0x40
 8020666:	1e5a      	subs	r2, r3, #1
 8020668:	687b      	ldr	r3, [r7, #4]
 802066a:	641a      	str	r2, [r3, #64]	; 0x40
 802066c:	687b      	ldr	r3, [r7, #4]
 802066e:	6c1b      	ldr	r3, [r3, #64]	; 0x40
 8020670:	2b00      	cmp	r3, #0
 8020672:	d105      	bne.n	8020680 <rt_tick_increase+0x34>
 8020674:	687b      	ldr	r3, [r7, #4]
 8020676:	6bda      	ldr	r2, [r3, #60]	; 0x3c
 8020678:	687b      	ldr	r3, [r7, #4]
 802067a:	641a      	str	r2, [r3, #64]	; 0x40
 802067c:	f001 fc0c 	bl	8021e98 <rt_thread_yield>
 8020680:	f002 f816 	bl	80226b0 <rt_timer_check>
 8020684:	bf00      	nop
 8020686:	3708      	adds	r7, #8
 8020688:	46bd      	mov	sp, r7
 802068a:	bd80      	pop	{r7, pc}
 802068c:	20000a24 	andcs	r0, r0, r4, lsr #20

08020690 <rt_tick_from_millisecond>:
 8020690:	b480      	push	{r7}
 8020692:	b085      	sub	sp, #20
 8020694:	af00      	add	r7, sp, #0
 8020696:	6078      	str	r0, [r7, #4]
 8020698:	687b      	ldr	r3, [r7, #4]
 802069a:	2b00      	cmp	r3, #0
 802069c:	da03      	bge.n	80206a6 <rt_tick_from_millisecond+0x16>
 802069e:	f04f 33ff 	mov.w	r3, #4294967295	; 0xffffffff
 80206a2:	60fb      	str	r3, [r7, #12]
 80206a4:	e027      	b.n	80206f6 <rt_tick_from_millisecond+0x66>
 80206a6:	687b      	ldr	r3, [r7, #4]
 80206a8:	4a16      	ldr	r2, [pc, #88]	; (8020704 <rt_tick_from_millisecond+0x74>)
 80206aa:	fb82 1203 	smull	r1, r2, r2, r3
 80206ae:	1192      	asrs	r2, r2, #6
 80206b0:	17db      	asrs	r3, r3, #31
 80206b2:	1ad3      	subs	r3, r2, r3
 80206b4:	f44f 727a 	mov.w	r2, #1000	; 0x3e8
 80206b8:	fb02 f303 	mul.w	r3, r2, r3
 80206bc:	60fb      	str	r3, [r7, #12]
 80206be:	687a      	ldr	r2, [r7, #4]
 80206c0:	4b10      	ldr	r3, [pc, #64]	; (8020704 <rt_tick_from_millisecond+0x74>)
 80206c2:	fb83 1302 	smull	r1, r3, r3, r2
 80206c6:	1199      	asrs	r1, r3, #6
 80206c8:	17d3      	asrs	r3, r2, #31
 80206ca:	1acb      	subs	r3, r1, r3
 80206cc:	f44f 717a 	mov.w	r1, #1000	; 0x3e8
 80206d0:	fb01 f303 	mul.w	r3, r1, r3
 80206d4:	1ad3      	subs	r3, r2, r3
 80206d6:	f44f 727a 	mov.w	r2, #1000	; 0x3e8
 80206da:	fb02 f303 	mul.w	r3, r2, r3
 80206de:	f203 33e7 	addw	r3, r3, #999	; 0x3e7
 80206e2:	4a08      	ldr	r2, [pc, #32]	; (8020704 <rt_tick_from_millisecond+0x74>)
 80206e4:	fb82 1203 	smull	r1, r2, r2, r3
 80206e8:	1192      	asrs	r2, r2, #6
 80206ea:	17db      	asrs	r3, r3, #31
 80206ec:	1ad3      	subs	r3, r2, r3
 80206ee:	461a      	mov	r2, r3
 80206f0:	68fb      	ldr	r3, [r7, #12]
 80206f2:	4413      	add	r3, r2
 80206f4:	60fb      	str	r3, [r7, #12]
 80206f6:	68fb      	ldr	r3, [r7, #12]
 80206f8:	4618      	mov	r0, r3
 80206fa:	3714      	adds	r7, #20
 80206fc:	46bd      	mov	sp, r7
 80206fe:	f85d 7b04 	ldr.w	r7, [sp], #4
 8020702:	4770      	bx	lr
 8020704:	10624dd3 	ldrdne	r4, [r2], #-211	; 0xffffff2d	; <UNPREDICTABLE>

08020708 <rti_start>:
 8020708:	b480      	push	{r7}
 802070a:	af00      	add	r7, sp, #0
 802070c:	2300      	movs	r3, #0
 802070e:	4618      	mov	r0, r3
 8020710:	46bd      	mov	sp, r7
 8020712:	f85d 7b04 	ldr.w	r7, [sp], #4
 8020716:	4770      	bx	lr

08020718 <rti_board_start>:
 8020718:	b480      	push	{r7}
 802071a:	af00      	add	r7, sp, #0
 802071c:	2300      	movs	r3, #0
 802071e:	4618      	mov	r0, r3
 8020720:	46bd      	mov	sp, r7
 8020722:	f85d 7b04 	ldr.w	r7, [sp], #4
 8020726:	4770      	bx	lr

08020728 <rti_board_end>:
 8020728:	b480      	push	{r7}
 802072a:	af00      	add	r7, sp, #0
 802072c:	2300      	movs	r3, #0
 802072e:	4618      	mov	r0, r3
 8020730:	46bd      	mov	sp, r7
 8020732:	f85d 7b04 	ldr.w	r7, [sp], #4
 8020736:	4770      	bx	lr

08020738 <rti_end>:
 8020738:	b480      	push	{r7}
 802073a:	af00      	add	r7, sp, #0
 802073c:	2300      	movs	r3, #0
 802073e:	4618      	mov	r0, r3
 8020740:	46bd      	mov	sp, r7
 8020742:	f85d 7b04 	ldr.w	r7, [sp], #4
 8020746:	4770      	bx	lr

08020748 <rt_components_board_init>:
 8020748:	b580      	push	{r7, lr}
 802074a:	b082      	sub	sp, #8
 802074c:	af00      	add	r7, sp, #0
 802074e:	4b0e      	ldr	r3, [pc, #56]	; (8020788 <rt_components_board_init+0x40>)
 8020750:	607b      	str	r3, [r7, #4]
 8020752:	e010      	b.n	8020776 <rt_components_board_init+0x2e>
 8020754:	687b      	ldr	r3, [r7, #4]
 8020756:	681b      	ldr	r3, [r3, #0]
 8020758:	4619      	mov	r1, r3
 802075a:	480c      	ldr	r0, [pc, #48]	; (802078c <rt_components_board_init+0x44>)
 802075c:	f000 fe2c 	bl	80213b8 <rt_kprintf>
 8020760:	687b      	ldr	r3, [r7, #4]
 8020762:	685b      	ldr	r3, [r3, #4]
 8020764:	4798      	blx	r3
 8020766:	6038      	str	r0, [r7, #0]
 8020768:	6839      	ldr	r1, [r7, #0]
 802076a:	4809      	ldr	r0, [pc, #36]	; (8020790 <rt_components_board_init+0x48>)
 802076c:	f000 fe24 	bl	80213b8 <rt_kprintf>
 8020770:	687b      	ldr	r3, [r7, #4]
 8020772:	3308      	adds	r3, #8
 8020774:	607b      	str	r3, [r7, #4]
 8020776:	687b      	ldr	r3, [r7, #4]
 8020778:	4a06      	ldr	r2, [pc, #24]	; (8020794 <rt_components_board_init+0x4c>)
 802077a:	4293      	cmp	r3, r2
 802077c:	d3ea      	bcc.n	8020754 <rt_components_board_init+0xc>
 802077e:	bf00      	nop
 8020780:	3708      	adds	r7, #8
 8020782:	46bd      	mov	sp, r7
 8020784:	bd80      	pop	{r7, pc}
 8020786:	bf00      	nop
 8020788:	08025650 	stmdaeq	r2, {r4, r6, r9, sl, ip, lr}
 802078c:	08024980 	stmdaeq	r2, {r7, r8, fp, lr}
 8020790:	08024990 	stmdaeq	r2, {r4, r7, r8, fp, lr}
 8020794:	08025668 	stmdaeq	r2, {r3, r5, r6, r9, sl, ip, lr}

08020798 <entry>:
 8020798:	b580      	push	{r7, lr}
 802079a:	af00      	add	r7, sp, #0
 802079c:	f000 f844 	bl	8020828 <rtthread_startup>
 80207a0:	2300      	movs	r3, #0
 80207a2:	4618      	mov	r0, r3
 80207a4:	bd80      	pop	{r7, pc}
 80207a6:	bf00      	nop

080207a8 <main_thread_entry>:
 80207a8:	b580      	push	{r7, lr}
 80207aa:	b082      	sub	sp, #8
 80207ac:	af00      	add	r7, sp, #0
 80207ae:	6078      	str	r0, [r7, #4]
 80207b0:	4804      	ldr	r0, [pc, #16]	; (80207c4 <main_thread_entry+0x1c>)
 80207b2:	f000 fe01 	bl	80213b8 <rt_kprintf>
 80207b6:	f003 ff1d 	bl	80245f4 <main>
 80207ba:	bf00      	nop
 80207bc:	3708      	adds	r7, #8
 80207be:	46bd      	mov	sp, r7
 80207c0:	bd80      	pop	{r7, pc}
 80207c2:	bf00      	nop
 80207c4:	080249bc 	stmdaeq	r2, {r2, r3, r4, r5, r7, r8, fp, lr}

080207c8 <rt_application_init>:
 80207c8:	b580      	push	{r7, lr}
 80207ca:	b086      	sub	sp, #24
 80207cc:	af04      	add	r7, sp, #16
 80207ce:	4b10      	ldr	r3, [pc, #64]	; (8020810 <rt_application_init+0x48>)
 80207d0:	607b      	str	r3, [r7, #4]
 80207d2:	2314      	movs	r3, #20
 80207d4:	9303      	str	r3, [sp, #12]
 80207d6:	230a      	movs	r3, #10
 80207d8:	9302      	str	r3, [sp, #8]
 80207da:	f44f 6300 	mov.w	r3, #2048	; 0x800
 80207de:	9301      	str	r3, [sp, #4]
 80207e0:	4b0c      	ldr	r3, [pc, #48]	; (8020814 <rt_application_init+0x4c>)
 80207e2:	9300      	str	r3, [sp, #0]
 80207e4:	2300      	movs	r3, #0
 80207e6:	4a0c      	ldr	r2, [pc, #48]	; (8020818 <rt_application_init+0x50>)
 80207e8:	490c      	ldr	r1, [pc, #48]	; (802081c <rt_application_init+0x54>)
 80207ea:	6878      	ldr	r0, [r7, #4]
 80207ec:	f001 fab8 	bl	8021d60 <rt_thread_init>
 80207f0:	6038      	str	r0, [r7, #0]
 80207f2:	683b      	ldr	r3, [r7, #0]
 80207f4:	2b00      	cmp	r3, #0
 80207f6:	d004      	beq.n	8020802 <rt_application_init+0x3a>
 80207f8:	22cb      	movs	r2, #203	; 0xcb
 80207fa:	4909      	ldr	r1, [pc, #36]	; (8020820 <rt_application_init+0x58>)
 80207fc:	4809      	ldr	r0, [pc, #36]	; (8020824 <rt_application_init+0x5c>)
 80207fe:	f000 fe33 	bl	8021468 <rt_assert_handler>
 8020802:	6878      	ldr	r0, [r7, #4]
 8020804:	f001 faee 	bl	8021de4 <rt_thread_startup>
 8020808:	bf00      	nop
 802080a:	3708      	adds	r7, #8
 802080c:	46bd      	mov	sp, r7
 802080e:	bd80      	pop	{r7, pc}
 8020810:	200014f8 	strdcs	r1, [r0], -r8
 8020814:	20000a28 	andcs	r0, r0, r8, lsr #20
 8020818:	080207a9 	stmdaeq	r2, {r0, r3, r5, r7, r8, r9, sl}
 802081c:	080249cc 	stmdaeq	r2, {r2, r3, r6, r7, r8, fp, lr}
 8020820:	080251ec 	stmdaeq	r2, {r2, r3, r5, r6, r7, r8, ip, lr}
 8020824:	080249d4 	stmdaeq	r2, {r2, r4, r6, r7, r8, fp, lr}

08020828 <rtthread_startup>:
 8020828:	b580      	push	{r7, lr}
 802082a:	af00      	add	r7, sp, #0
 802082c:	f7ff fcda 	bl	80201e4 <rt_hw_interrupt_disable>
 8020830:	f003 fb64 	bl	8023efc <rt_hw_board_init>
 8020834:	f000 f9b8 	bl	8020ba8 <rt_show_version>
 8020838:	f001 ff9c 	bl	8022774 <rt_system_timer_init>
 802083c:	f000 ffec 	bl	8021818 <rt_system_scheduler_init>
 8020840:	f7ff ffc2 	bl	80207c8 <rt_application_init>
 8020844:	f001 ffb0 	bl	80227a8 <rt_system_timer_thread_init>
 8020848:	f000 f89c 	bl	8020984 <rt_thread_idle_init>
 802084c:	f001 f814 	bl	8021878 <rt_system_scheduler_start>
 8020850:	2300      	movs	r3, #0
 8020852:	4618      	mov	r0, r3
 8020854:	bd80      	pop	{r7, pc}
 8020856:	bf00      	nop

08020858 <rt_list_remove>:
 8020858:	b480      	push	{r7}
 802085a:	b083      	sub	sp, #12
 802085c:	af00      	add	r7, sp, #0
 802085e:	6078      	str	r0, [r7, #4]
 8020860:	687b      	ldr	r3, [r7, #4]
 8020862:	681b      	ldr	r3, [r3, #0]
 8020864:	687a      	ldr	r2, [r7, #4]
 8020866:	6852      	ldr	r2, [r2, #4]
 8020868:	605a      	str	r2, [r3, #4]
 802086a:	687b      	ldr	r3, [r7, #4]
 802086c:	685b      	ldr	r3, [r3, #4]
 802086e:	687a      	ldr	r2, [r7, #4]
 8020870:	6812      	ldr	r2, [r2, #0]
 8020872:	601a      	str	r2, [r3, #0]
 8020874:	687b      	ldr	r3, [r7, #4]
 8020876:	687a      	ldr	r2, [r7, #4]
 8020878:	605a      	str	r2, [r3, #4]
 802087a:	687b      	ldr	r3, [r7, #4]
 802087c:	685a      	ldr	r2, [r3, #4]
 802087e:	687b      	ldr	r3, [r7, #4]
 8020880:	601a      	str	r2, [r3, #0]
 8020882:	bf00      	nop
 8020884:	370c      	adds	r7, #12
 8020886:	46bd      	mov	sp, r7
 8020888:	f85d 7b04 	ldr.w	r7, [sp], #4
 802088c:	4770      	bx	lr
 802088e:	bf00      	nop

08020890 <_has_defunct_thread>:
 8020890:	b480      	push	{r7}
 8020892:	b083      	sub	sp, #12
 8020894:	af00      	add	r7, sp, #0
 8020896:	4b08      	ldr	r3, [pc, #32]	; (80208b8 <_has_defunct_thread+0x28>)
 8020898:	607b      	str	r3, [r7, #4]
 802089a:	687b      	ldr	r3, [r7, #4]
 802089c:	681a      	ldr	r2, [r3, #0]
 802089e:	687b      	ldr	r3, [r7, #4]
 80208a0:	429a      	cmp	r2, r3
 80208a2:	bf14      	ite	ne
 80208a4:	2301      	movne	r3, #1
 80208a6:	2300      	moveq	r3, #0
 80208a8:	b2db      	uxtb	r3, r3
 80208aa:	4618      	mov	r0, r3
 80208ac:	370c      	adds	r7, #12
 80208ae:	46bd      	mov	sp, r7
 80208b0:	f85d 7b04 	ldr.w	r7, [sp], #4
 80208b4:	4770      	bx	lr
 80208b6:	bf00      	nop
 80208b8:	20001684 	andcs	r1, r0, r4, lsl #13

080208bc <rt_thread_idle_excute>:
 80208bc:	b580      	push	{r7, lr}
 80208be:	b084      	sub	sp, #16
 80208c0:	af00      	add	r7, sp, #0
 80208c2:	e047      	b.n	8020954 <rt_thread_idle_excute+0x98>
 80208c4:	f7ff fc8e 	bl	80201e4 <rt_hw_interrupt_disable>
 80208c8:	60f8      	str	r0, [r7, #12]
 80208ca:	f000 f8bb 	bl	8020a44 <rt_interrupt_get_nest>
 80208ce:	4603      	mov	r3, r0
 80208d0:	2b00      	cmp	r3, #0
 80208d2:	d008      	beq.n	80208e6 <rt_thread_idle_excute+0x2a>
 80208d4:	4923      	ldr	r1, [pc, #140]	; (8020964 <rt_thread_idle_excute+0xa8>)
 80208d6:	4824      	ldr	r0, [pc, #144]	; (8020968 <rt_thread_idle_excute+0xac>)
 80208d8:	f000 fd6e 	bl	80213b8 <rt_kprintf>
 80208dc:	2299      	movs	r2, #153	; 0x99
 80208de:	4921      	ldr	r1, [pc, #132]	; (8020964 <rt_thread_idle_excute+0xa8>)
 80208e0:	4822      	ldr	r0, [pc, #136]	; (802096c <rt_thread_idle_excute+0xb0>)
 80208e2:	f000 fdc1 	bl	8021468 <rt_assert_handler>
 80208e6:	68f8      	ldr	r0, [r7, #12]
 80208e8:	f7ff fc80 	bl	80201ec <rt_hw_interrupt_enable>
 80208ec:	f7ff fc7a 	bl	80201e4 <rt_hw_interrupt_disable>
 80208f0:	60b8      	str	r0, [r7, #8]
 80208f2:	f7ff ffcd 	bl	8020890 <_has_defunct_thread>
 80208f6:	4603      	mov	r3, r0
 80208f8:	2b00      	cmp	r3, #0
 80208fa:	d024      	beq.n	8020946 <rt_thread_idle_excute+0x8a>
 80208fc:	4b1c      	ldr	r3, [pc, #112]	; (8020970 <rt_thread_idle_excute+0xb4>)
 80208fe:	681b      	ldr	r3, [r3, #0]
 8020900:	3b14      	subs	r3, #20
 8020902:	607b      	str	r3, [r7, #4]
 8020904:	687b      	ldr	r3, [r7, #4]
 8020906:	3314      	adds	r3, #20
 8020908:	4618      	mov	r0, r3
 802090a:	f7ff ffa5 	bl	8020858 <rt_list_remove>
 802090e:	f001 f8dd 	bl	8021acc <rt_enter_critical>
 8020912:	687b      	ldr	r3, [r7, #4]
 8020914:	6f1b      	ldr	r3, [r3, #112]	; 0x70
 8020916:	2b00      	cmp	r3, #0
 8020918:	d003      	beq.n	8020922 <rt_thread_idle_excute+0x66>
 802091a:	687b      	ldr	r3, [r7, #4]
 802091c:	6f1b      	ldr	r3, [r3, #112]	; 0x70
 802091e:	6878      	ldr	r0, [r7, #4]
 8020920:	4798      	blx	r3
 8020922:	6878      	ldr	r0, [r7, #4]
 8020924:	f000 fe9c 	bl	8021660 <rt_object_is_systemobject>
 8020928:	4603      	mov	r3, r0
 802092a:	2b01      	cmp	r3, #1
 802092c:	d108      	bne.n	8020940 <rt_thread_idle_excute+0x84>
 802092e:	6878      	ldr	r0, [r7, #4]
 8020930:	f000 fe72 	bl	8021618 <rt_object_detach>
 8020934:	f001 f8e0 	bl	8021af8 <rt_exit_critical>
 8020938:	68b8      	ldr	r0, [r7, #8]
 802093a:	f7ff fc57 	bl	80201ec <rt_hw_interrupt_enable>
 802093e:	e00e      	b.n	802095e <rt_thread_idle_excute+0xa2>
 8020940:	f001 f8da 	bl	8021af8 <rt_exit_critical>
 8020944:	e003      	b.n	802094e <rt_thread_idle_excute+0x92>
 8020946:	68b8      	ldr	r0, [r7, #8]
 8020948:	f7ff fc50 	bl	80201ec <rt_hw_interrupt_enable>
 802094c:	e007      	b.n	802095e <rt_thread_idle_excute+0xa2>
 802094e:	68b8      	ldr	r0, [r7, #8]
 8020950:	f7ff fc4c 	bl	80201ec <rt_hw_interrupt_enable>
 8020954:	f7ff ff9c 	bl	8020890 <_has_defunct_thread>
 8020958:	4603      	mov	r3, r0
 802095a:	2b00      	cmp	r3, #0
 802095c:	d1b2      	bne.n	80208c4 <rt_thread_idle_excute+0x8>
 802095e:	3710      	adds	r7, #16
 8020960:	46bd      	mov	sp, r7
 8020962:	bd80      	pop	{r7, pc}
 8020964:	08025200 	stmdaeq	r2, {r9, ip, lr}
 8020968:	080249e8 	stmdaeq	r2, {r3, r5, r6, r7, r8, fp, lr}
 802096c:	08024a10 	stmdaeq	r2, {r4, r9, fp, lr}
 8020970:	20001684 	andcs	r1, r0, r4, lsl #13

08020974 <rt_thread_idle_entry>:
 8020974:	b580      	push	{r7, lr}
 8020976:	b082      	sub	sp, #8
 8020978:	af00      	add	r7, sp, #0
 802097a:	6078      	str	r0, [r7, #4]
 802097c:	f7ff ff9e 	bl	80208bc <rt_thread_idle_excute>
 8020980:	e7fc      	b.n	802097c <rt_thread_idle_entry+0x8>
 8020982:	bf00      	nop

08020984 <rt_thread_idle_init>:
 8020984:	b580      	push	{r7, lr}
 8020986:	b084      	sub	sp, #16
 8020988:	af04      	add	r7, sp, #16
 802098a:	2320      	movs	r3, #32
 802098c:	9303      	str	r3, [sp, #12]
 802098e:	231f      	movs	r3, #31
 8020990:	9302      	str	r3, [sp, #8]
 8020992:	f44f 7380 	mov.w	r3, #256	; 0x100
 8020996:	9301      	str	r3, [sp, #4]
 8020998:	4b06      	ldr	r3, [pc, #24]	; (80209b4 <rt_thread_idle_init+0x30>)
 802099a:	9300      	str	r3, [sp, #0]
 802099c:	2300      	movs	r3, #0
 802099e:	4a06      	ldr	r2, [pc, #24]	; (80209b8 <rt_thread_idle_init+0x34>)
 80209a0:	4906      	ldr	r1, [pc, #24]	; (80209bc <rt_thread_idle_init+0x38>)
 80209a2:	4807      	ldr	r0, [pc, #28]	; (80209c0 <rt_thread_idle_init+0x3c>)
 80209a4:	f001 f9dc 	bl	8021d60 <rt_thread_init>
 80209a8:	4805      	ldr	r0, [pc, #20]	; (80209c0 <rt_thread_idle_init+0x3c>)
 80209aa:	f001 fa1b 	bl	8021de4 <rt_thread_startup>
 80209ae:	bf00      	nop
 80209b0:	46bd      	mov	sp, r7
 80209b2:	bd80      	pop	{r7, pc}
 80209b4:	200012a0 	andcs	r1, r0, r0, lsr #5
 80209b8:	08020975 	stmdaeq	r2, {r0, r2, r4, r5, r6, r8, fp}
 80209bc:	08024a14 	stmdaeq	r2, {r2, r4, r9, fp, lr}
 80209c0:	20001228 	andcs	r1, r0, r8, lsr #4

080209c4 <rt_interrupt_enter>:
 80209c4:	b580      	push	{r7, lr}
 80209c6:	b082      	sub	sp, #8
 80209c8:	af00      	add	r7, sp, #0
 80209ca:	4b0c      	ldr	r3, [pc, #48]	; (80209fc <rt_interrupt_enter+0x38>)
 80209cc:	781b      	ldrb	r3, [r3, #0]
 80209ce:	b2db      	uxtb	r3, r3
 80209d0:	4619      	mov	r1, r3
 80209d2:	480b      	ldr	r0, [pc, #44]	; (8020a00 <rt_interrupt_enter+0x3c>)
 80209d4:	f000 fcf0 	bl	80213b8 <rt_kprintf>
 80209d8:	f7ff fc04 	bl	80201e4 <rt_hw_interrupt_disable>
 80209dc:	6078      	str	r0, [r7, #4]
 80209de:	4b07      	ldr	r3, [pc, #28]	; (80209fc <rt_interrupt_enter+0x38>)
 80209e0:	781b      	ldrb	r3, [r3, #0]
 80209e2:	b2db      	uxtb	r3, r3
 80209e4:	3301      	adds	r3, #1
 80209e6:	b2da      	uxtb	r2, r3
 80209e8:	4b04      	ldr	r3, [pc, #16]	; (80209fc <rt_interrupt_enter+0x38>)
 80209ea:	701a      	strb	r2, [r3, #0]
 80209ec:	6878      	ldr	r0, [r7, #4]
 80209ee:	f7ff fbfd 	bl	80201ec <rt_hw_interrupt_enable>
 80209f2:	bf00      	nop
 80209f4:	3708      	adds	r7, #8
 80209f6:	46bd      	mov	sp, r7
 80209f8:	bd80      	pop	{r7, pc}
 80209fa:	bf00      	nop
 80209fc:	20001570 	andcs	r1, r0, r0, ror r5
 8020a00:	08024a1c 	stmdaeq	r2, {r2, r3, r4, r9, fp, lr}

08020a04 <rt_interrupt_leave>:
 8020a04:	b580      	push	{r7, lr}
 8020a06:	b082      	sub	sp, #8
 8020a08:	af00      	add	r7, sp, #0
 8020a0a:	4b0c      	ldr	r3, [pc, #48]	; (8020a3c <rt_interrupt_leave+0x38>)
 8020a0c:	781b      	ldrb	r3, [r3, #0]
 8020a0e:	b2db      	uxtb	r3, r3
 8020a10:	4619      	mov	r1, r3
 8020a12:	480b      	ldr	r0, [pc, #44]	; (8020a40 <rt_interrupt_leave+0x3c>)
 8020a14:	f000 fcd0 	bl	80213b8 <rt_kprintf>
 8020a18:	f7ff fbe4 	bl	80201e4 <rt_hw_interrupt_disable>
 8020a1c:	6078      	str	r0, [r7, #4]
 8020a1e:	4b07      	ldr	r3, [pc, #28]	; (8020a3c <rt_interrupt_leave+0x38>)
 8020a20:	781b      	ldrb	r3, [r3, #0]
 8020a22:	b2db      	uxtb	r3, r3
 8020a24:	3b01      	subs	r3, #1
 8020a26:	b2da      	uxtb	r2, r3
 8020a28:	4b04      	ldr	r3, [pc, #16]	; (8020a3c <rt_interrupt_leave+0x38>)
 8020a2a:	701a      	strb	r2, [r3, #0]
 8020a2c:	6878      	ldr	r0, [r7, #4]
 8020a2e:	f7ff fbdd 	bl	80201ec <rt_hw_interrupt_enable>
 8020a32:	bf00      	nop
 8020a34:	3708      	adds	r7, #8
 8020a36:	46bd      	mov	sp, r7
 8020a38:	bd80      	pop	{r7, pc}
 8020a3a:	bf00      	nop
 8020a3c:	20001570 	andcs	r1, r0, r0, ror r5
 8020a40:	08024a38 	stmdaeq	r2, {r3, r4, r5, r9, fp, lr}

08020a44 <rt_interrupt_get_nest>:
 8020a44:	b480      	push	{r7}
 8020a46:	af00      	add	r7, sp, #0
 8020a48:	4b03      	ldr	r3, [pc, #12]	; (8020a58 <rt_interrupt_get_nest+0x14>)
 8020a4a:	781b      	ldrb	r3, [r3, #0]
 8020a4c:	b2db      	uxtb	r3, r3
 8020a4e:	4618      	mov	r0, r3
 8020a50:	46bd      	mov	sp, r7
 8020a52:	f85d 7b04 	ldr.w	r7, [sp], #4
 8020a56:	4770      	bx	lr
 8020a58:	20001570 	andcs	r1, r0, r0, ror r5

08020a5c <rt_memset>:
 8020a5c:	b480      	push	{r7}
 8020a5e:	b089      	sub	sp, #36	; 0x24
 8020a60:	af00      	add	r7, sp, #0
 8020a62:	60f8      	str	r0, [r7, #12]
 8020a64:	60b9      	str	r1, [r7, #8]
 8020a66:	607a      	str	r2, [r7, #4]
 8020a68:	68fb      	ldr	r3, [r7, #12]
 8020a6a:	61fb      	str	r3, [r7, #28]
 8020a6c:	68bb      	ldr	r3, [r7, #8]
 8020a6e:	b2db      	uxtb	r3, r3
 8020a70:	617b      	str	r3, [r7, #20]
 8020a72:	687b      	ldr	r3, [r7, #4]
 8020a74:	2b03      	cmp	r3, #3
 8020a76:	d940      	bls.n	8020afa <rt_memset+0x9e>
 8020a78:	68fb      	ldr	r3, [r7, #12]
 8020a7a:	f003 0303 	and.w	r3, r3, #3
 8020a7e:	2b00      	cmp	r3, #0
 8020a80:	d13b      	bne.n	8020afa <rt_memset+0x9e>
 8020a82:	68fb      	ldr	r3, [r7, #12]
 8020a84:	61bb      	str	r3, [r7, #24]
 8020a86:	697b      	ldr	r3, [r7, #20]
 8020a88:	021a      	lsls	r2, r3, #8
 8020a8a:	697b      	ldr	r3, [r7, #20]
 8020a8c:	4313      	orrs	r3, r2
 8020a8e:	613b      	str	r3, [r7, #16]
 8020a90:	693b      	ldr	r3, [r7, #16]
 8020a92:	041b      	lsls	r3, r3, #16
 8020a94:	693a      	ldr	r2, [r7, #16]
 8020a96:	4313      	orrs	r3, r2
 8020a98:	613b      	str	r3, [r7, #16]
 8020a9a:	e016      	b.n	8020aca <rt_memset+0x6e>
 8020a9c:	69bb      	ldr	r3, [r7, #24]
 8020a9e:	1d1a      	adds	r2, r3, #4
 8020aa0:	61ba      	str	r2, [r7, #24]
 8020aa2:	693a      	ldr	r2, [r7, #16]
 8020aa4:	601a      	str	r2, [r3, #0]
 8020aa6:	69bb      	ldr	r3, [r7, #24]
 8020aa8:	1d1a      	adds	r2, r3, #4
 8020aaa:	61ba      	str	r2, [r7, #24]
 8020aac:	693a      	ldr	r2, [r7, #16]
 8020aae:	601a      	str	r2, [r3, #0]
 8020ab0:	69bb      	ldr	r3, [r7, #24]
 8020ab2:	1d1a      	adds	r2, r3, #4
 8020ab4:	61ba      	str	r2, [r7, #24]
 8020ab6:	693a      	ldr	r2, [r7, #16]
 8020ab8:	601a      	str	r2, [r3, #0]
 8020aba:	69bb      	ldr	r3, [r7, #24]
 8020abc:	1d1a      	adds	r2, r3, #4
 8020abe:	61ba      	str	r2, [r7, #24]
 8020ac0:	693a      	ldr	r2, [r7, #16]
 8020ac2:	601a      	str	r2, [r3, #0]
 8020ac4:	687b      	ldr	r3, [r7, #4]
 8020ac6:	3b10      	subs	r3, #16
 8020ac8:	607b      	str	r3, [r7, #4]
 8020aca:	687b      	ldr	r3, [r7, #4]
 8020acc:	2b0f      	cmp	r3, #15
 8020ace:	d8e5      	bhi.n	8020a9c <rt_memset+0x40>
 8020ad0:	e007      	b.n	8020ae2 <rt_memset+0x86>
 8020ad2:	69bb      	ldr	r3, [r7, #24]
 8020ad4:	1d1a      	adds	r2, r3, #4
 8020ad6:	61ba      	str	r2, [r7, #24]
 8020ad8:	693a      	ldr	r2, [r7, #16]
 8020ada:	601a      	str	r2, [r3, #0]
 8020adc:	687b      	ldr	r3, [r7, #4]
 8020ade:	3b04      	subs	r3, #4
 8020ae0:	607b      	str	r3, [r7, #4]
 8020ae2:	687b      	ldr	r3, [r7, #4]
 8020ae4:	2b03      	cmp	r3, #3
 8020ae6:	d8f4      	bhi.n	8020ad2 <rt_memset+0x76>
 8020ae8:	69bb      	ldr	r3, [r7, #24]
 8020aea:	61fb      	str	r3, [r7, #28]
 8020aec:	e005      	b.n	8020afa <rt_memset+0x9e>
 8020aee:	69fb      	ldr	r3, [r7, #28]
 8020af0:	1c5a      	adds	r2, r3, #1
 8020af2:	61fa      	str	r2, [r7, #28]
 8020af4:	697a      	ldr	r2, [r7, #20]
 8020af6:	b2d2      	uxtb	r2, r2
 8020af8:	701a      	strb	r2, [r3, #0]
 8020afa:	687b      	ldr	r3, [r7, #4]
 8020afc:	1e5a      	subs	r2, r3, #1
 8020afe:	607a      	str	r2, [r7, #4]
 8020b00:	2b00      	cmp	r3, #0
 8020b02:	d1f4      	bne.n	8020aee <rt_memset+0x92>
 8020b04:	68fb      	ldr	r3, [r7, #12]
 8020b06:	4618      	mov	r0, r3
 8020b08:	3724      	adds	r7, #36	; 0x24
 8020b0a:	46bd      	mov	sp, r7
 8020b0c:	f85d 7b04 	ldr.w	r7, [sp], #4
 8020b10:	4770      	bx	lr
 8020b12:	bf00      	nop

08020b14 <rt_strncpy>:
 8020b14:	b480      	push	{r7}
 8020b16:	b087      	sub	sp, #28
 8020b18:	af00      	add	r7, sp, #0
 8020b1a:	60f8      	str	r0, [r7, #12]
 8020b1c:	60b9      	str	r1, [r7, #8]
 8020b1e:	607a      	str	r2, [r7, #4]
 8020b20:	687b      	ldr	r3, [r7, #4]
 8020b22:	2b00      	cmp	r3, #0
 8020b24:	d021      	beq.n	8020b6a <rt_strncpy+0x56>
 8020b26:	68fb      	ldr	r3, [r7, #12]
 8020b28:	617b      	str	r3, [r7, #20]
 8020b2a:	68bb      	ldr	r3, [r7, #8]
 8020b2c:	613b      	str	r3, [r7, #16]
 8020b2e:	697b      	ldr	r3, [r7, #20]
 8020b30:	1c5a      	adds	r2, r3, #1
 8020b32:	617a      	str	r2, [r7, #20]
 8020b34:	693a      	ldr	r2, [r7, #16]
 8020b36:	1c51      	adds	r1, r2, #1
 8020b38:	6139      	str	r1, [r7, #16]
 8020b3a:	7812      	ldrb	r2, [r2, #0]
 8020b3c:	701a      	strb	r2, [r3, #0]
 8020b3e:	781b      	ldrb	r3, [r3, #0]
 8020b40:	2b00      	cmp	r3, #0
 8020b42:	d10c      	bne.n	8020b5e <rt_strncpy+0x4a>
 8020b44:	e004      	b.n	8020b50 <rt_strncpy+0x3c>
 8020b46:	697b      	ldr	r3, [r7, #20]
 8020b48:	1c5a      	adds	r2, r3, #1
 8020b4a:	617a      	str	r2, [r7, #20]
 8020b4c:	2200      	movs	r2, #0
 8020b4e:	701a      	strb	r2, [r3, #0]
 8020b50:	687b      	ldr	r3, [r7, #4]
 8020b52:	3b01      	subs	r3, #1
 8020b54:	607b      	str	r3, [r7, #4]
 8020b56:	687b      	ldr	r3, [r7, #4]
 8020b58:	2b00      	cmp	r3, #0
 8020b5a:	d1f4      	bne.n	8020b46 <rt_strncpy+0x32>
 8020b5c:	e005      	b.n	8020b6a <rt_strncpy+0x56>
 8020b5e:	687b      	ldr	r3, [r7, #4]
 8020b60:	3b01      	subs	r3, #1
 8020b62:	607b      	str	r3, [r7, #4]
 8020b64:	687b      	ldr	r3, [r7, #4]
 8020b66:	2b00      	cmp	r3, #0
 8020b68:	d1e1      	bne.n	8020b2e <rt_strncpy+0x1a>
 8020b6a:	68fb      	ldr	r3, [r7, #12]
 8020b6c:	4618      	mov	r0, r3
 8020b6e:	371c      	adds	r7, #28
 8020b70:	46bd      	mov	sp, r7
 8020b72:	f85d 7b04 	ldr.w	r7, [sp], #4
 8020b76:	4770      	bx	lr

08020b78 <rt_strlen>:
 8020b78:	b480      	push	{r7}
 8020b7a:	b085      	sub	sp, #20
 8020b7c:	af00      	add	r7, sp, #0
 8020b7e:	6078      	str	r0, [r7, #4]
 8020b80:	687b      	ldr	r3, [r7, #4]
 8020b82:	60fb      	str	r3, [r7, #12]
 8020b84:	e002      	b.n	8020b8c <rt_strlen+0x14>
 8020b86:	68fb      	ldr	r3, [r7, #12]
 8020b88:	3301      	adds	r3, #1
 8020b8a:	60fb      	str	r3, [r7, #12]
 8020b8c:	68fb      	ldr	r3, [r7, #12]
 8020b8e:	781b      	ldrb	r3, [r3, #0]
 8020b90:	2b00      	cmp	r3, #0
 8020b92:	d1f8      	bne.n	8020b86 <rt_strlen+0xe>
 8020b94:	68fa      	ldr	r2, [r7, #12]
 8020b96:	687b      	ldr	r3, [r7, #4]
 8020b98:	1ad3      	subs	r3, r2, r3
 8020b9a:	4618      	mov	r0, r3
 8020b9c:	3714      	adds	r7, #20
 8020b9e:	46bd      	mov	sp, r7
 8020ba0:	f85d 7b04 	ldr.w	r7, [sp], #4
 8020ba4:	4770      	bx	lr
 8020ba6:	bf00      	nop

08020ba8 <rt_show_version>:
 8020ba8:	b580      	push	{r7, lr}
 8020baa:	b082      	sub	sp, #8
 8020bac:	af02      	add	r7, sp, #8
 8020bae:	480a      	ldr	r0, [pc, #40]	; (8020bd8 <rt_show_version+0x30>)
 8020bb0:	f000 fc02 	bl	80213b8 <rt_kprintf>
 8020bb4:	4809      	ldr	r0, [pc, #36]	; (8020bdc <rt_show_version+0x34>)
 8020bb6:	f000 fbff 	bl	80213b8 <rt_kprintf>
 8020bba:	4b09      	ldr	r3, [pc, #36]	; (8020be0 <rt_show_version+0x38>)
 8020bbc:	9300      	str	r3, [sp, #0]
 8020bbe:	2303      	movs	r3, #3
 8020bc0:	2201      	movs	r2, #1
 8020bc2:	2103      	movs	r1, #3
 8020bc4:	4807      	ldr	r0, [pc, #28]	; (8020be4 <rt_show_version+0x3c>)
 8020bc6:	f000 fbf7 	bl	80213b8 <rt_kprintf>
 8020bca:	4807      	ldr	r0, [pc, #28]	; (8020be8 <rt_show_version+0x40>)
 8020bcc:	f000 fbf4 	bl	80213b8 <rt_kprintf>
 8020bd0:	bf00      	nop
 8020bd2:	46bd      	mov	sp, r7
 8020bd4:	bd80      	pop	{r7, pc}
 8020bd6:	bf00      	nop
 8020bd8:	08024a50 	stmdaeq	r2, {r4, r6, r9, fp, lr}
 8020bdc:	08024a5c 	stmdaeq	r2, {r2, r3, r4, r6, r9, fp, lr}
 8020be0:	08024aa0 	stmdaeq	r2, {r5, r7, r9, fp, lr}
 8020be4:	08024a80 	stmdaeq	r2, {r7, r9, fp, lr}
 8020be8:	08024aac 	stmdaeq	r2, {r2, r3, r5, r7, r9, fp, lr}

08020bec <divide>:
 8020bec:	b480      	push	{r7}
 8020bee:	b085      	sub	sp, #20
 8020bf0:	af00      	add	r7, sp, #0
 8020bf2:	6078      	str	r0, [r7, #4]
 8020bf4:	6039      	str	r1, [r7, #0]
 8020bf6:	683b      	ldr	r3, [r7, #0]
 8020bf8:	2b0a      	cmp	r3, #10
 8020bfa:	d117      	bne.n	8020c2c <divide+0x40>
 8020bfc:	687b      	ldr	r3, [r7, #4]
 8020bfe:	681b      	ldr	r3, [r3, #0]
 8020c00:	4619      	mov	r1, r3
 8020c02:	4b13      	ldr	r3, [pc, #76]	; (8020c50 <divide+0x64>)
 8020c04:	fba3 2301 	umull	r2, r3, r3, r1
 8020c08:	08da      	lsrs	r2, r3, #3
 8020c0a:	4613      	mov	r3, r2
 8020c0c:	009b      	lsls	r3, r3, #2
 8020c0e:	4413      	add	r3, r2
 8020c10:	005b      	lsls	r3, r3, #1
 8020c12:	1aca      	subs	r2, r1, r3
 8020c14:	60fa      	str	r2, [r7, #12]
 8020c16:	687b      	ldr	r3, [r7, #4]
 8020c18:	681b      	ldr	r3, [r3, #0]
 8020c1a:	461a      	mov	r2, r3
 8020c1c:	4b0c      	ldr	r3, [pc, #48]	; (8020c50 <divide+0x64>)
 8020c1e:	fba3 2302 	umull	r2, r3, r3, r2
 8020c22:	08db      	lsrs	r3, r3, #3
 8020c24:	461a      	mov	r2, r3
 8020c26:	687b      	ldr	r3, [r7, #4]
 8020c28:	601a      	str	r2, [r3, #0]
 8020c2a:	e00a      	b.n	8020c42 <divide+0x56>
 8020c2c:	687b      	ldr	r3, [r7, #4]
 8020c2e:	681b      	ldr	r3, [r3, #0]
 8020c30:	f003 030f 	and.w	r3, r3, #15
 8020c34:	60fb      	str	r3, [r7, #12]
 8020c36:	687b      	ldr	r3, [r7, #4]
 8020c38:	681b      	ldr	r3, [r3, #0]
 8020c3a:	091b      	lsrs	r3, r3, #4
 8020c3c:	461a      	mov	r2, r3
 8020c3e:	687b      	ldr	r3, [r7, #4]
 8020c40:	601a      	str	r2, [r3, #0]
 8020c42:	68fb      	ldr	r3, [r7, #12]
 8020c44:	4618      	mov	r0, r3
 8020c46:	3714      	adds	r7, #20
 8020c48:	46bd      	mov	sp, r7
 8020c4a:	f85d 7b04 	ldr.w	r7, [sp], #4
 8020c4e:	4770      	bx	lr
 8020c50:	cccccccd 	stclgt	12, cr12, [ip], {205}	; 0xcd

08020c54 <skip_atoi>:
 8020c54:	b490      	push	{r4, r7}
 8020c56:	b082      	sub	sp, #8
 8020c58:	af00      	add	r7, sp, #0
 8020c5a:	6078      	str	r0, [r7, #4]
 8020c5c:	2400      	movs	r4, #0
 8020c5e:	e00d      	b.n	8020c7c <skip_atoi+0x28>
 8020c60:	4623      	mov	r3, r4
 8020c62:	009b      	lsls	r3, r3, #2
 8020c64:	4423      	add	r3, r4
 8020c66:	005b      	lsls	r3, r3, #1
 8020c68:	4618      	mov	r0, r3
 8020c6a:	687b      	ldr	r3, [r7, #4]
 8020c6c:	681b      	ldr	r3, [r3, #0]
 8020c6e:	1c59      	adds	r1, r3, #1
 8020c70:	687a      	ldr	r2, [r7, #4]
 8020c72:	6011      	str	r1, [r2, #0]
 8020c74:	781b      	ldrb	r3, [r3, #0]
 8020c76:	4403      	add	r3, r0
 8020c78:	f1a3 0430 	sub.w	r4, r3, #48	; 0x30
 8020c7c:	687b      	ldr	r3, [r7, #4]
 8020c7e:	681b      	ldr	r3, [r3, #0]
 8020c80:	781b      	ldrb	r3, [r3, #0]
 8020c82:	3b30      	subs	r3, #48	; 0x30
 8020c84:	2b09      	cmp	r3, #9
 8020c86:	d9eb      	bls.n	8020c60 <skip_atoi+0xc>
 8020c88:	4623      	mov	r3, r4
 8020c8a:	4618      	mov	r0, r3
 8020c8c:	3708      	adds	r7, #8
 8020c8e:	46bd      	mov	sp, r7
 8020c90:	bc90      	pop	{r4, r7}
 8020c92:	4770      	bx	lr

08020c94 <print_number>:
 8020c94:	b5f0      	push	{r4, r5, r6, r7, lr}
 8020c96:	b08d      	sub	sp, #52	; 0x34
 8020c98:	af00      	add	r7, sp, #0
 8020c9a:	60f8      	str	r0, [r7, #12]
 8020c9c:	60b9      	str	r1, [r7, #8]
 8020c9e:	607a      	str	r2, [r7, #4]
 8020ca0:	603b      	str	r3, [r7, #0]
 8020ca2:	6cfb      	ldr	r3, [r7, #76]	; 0x4c
 8020ca4:	62bb      	str	r3, [r7, #40]	; 0x28
 8020ca6:	6cbc      	ldr	r4, [r7, #72]	; 0x48
 8020ca8:	6d3b      	ldr	r3, [r7, #80]	; 0x50
 8020caa:	f003 0340 	and.w	r3, r3, #64	; 0x40
 8020cae:	2b00      	cmp	r3, #0
 8020cb0:	d001      	beq.n	8020cb6 <print_number+0x22>
 8020cb2:	4b6d      	ldr	r3, [pc, #436]	; (8020e68 <print_number+0x1d4>)
 8020cb4:	e000      	b.n	8020cb8 <print_number+0x24>
 8020cb6:	4b6d      	ldr	r3, [pc, #436]	; (8020e6c <print_number+0x1d8>)
 8020cb8:	627b      	str	r3, [r7, #36]	; 0x24
 8020cba:	6d3b      	ldr	r3, [r7, #80]	; 0x50
 8020cbc:	f003 0310 	and.w	r3, r3, #16
 8020cc0:	2b00      	cmp	r3, #0
 8020cc2:	d003      	beq.n	8020ccc <print_number+0x38>
 8020cc4:	6d3b      	ldr	r3, [r7, #80]	; 0x50
 8020cc6:	f023 0301 	bic.w	r3, r3, #1
 8020cca:	653b      	str	r3, [r7, #80]	; 0x50
 8020ccc:	6d3b      	ldr	r3, [r7, #80]	; 0x50
 8020cce:	f003 0301 	and.w	r3, r3, #1
 8020cd2:	2b00      	cmp	r3, #0
 8020cd4:	d001      	beq.n	8020cda <print_number+0x46>
 8020cd6:	2330      	movs	r3, #48	; 0x30
 8020cd8:	e000      	b.n	8020cdc <print_number+0x48>
 8020cda:	2320      	movs	r3, #32
 8020cdc:	f887 3023 	strb.w	r3, [r7, #35]	; 0x23
 8020ce0:	2300      	movs	r3, #0
 8020ce2:	f887 302f 	strb.w	r3, [r7, #47]	; 0x2f
 8020ce6:	6d3b      	ldr	r3, [r7, #80]	; 0x50
 8020ce8:	f003 0302 	and.w	r3, r3, #2
 8020cec:	2b00      	cmp	r3, #0
 8020cee:	d01a      	beq.n	8020d26 <print_number+0x92>
 8020cf0:	687b      	ldr	r3, [r7, #4]
 8020cf2:	2b00      	cmp	r3, #0
 8020cf4:	da06      	bge.n	8020d04 <print_number+0x70>
 8020cf6:	232d      	movs	r3, #45	; 0x2d
 8020cf8:	f887 302f 	strb.w	r3, [r7, #47]	; 0x2f
 8020cfc:	687b      	ldr	r3, [r7, #4]
 8020cfe:	425b      	negs	r3, r3
 8020d00:	607b      	str	r3, [r7, #4]
 8020d02:	e010      	b.n	8020d26 <print_number+0x92>
 8020d04:	6d3b      	ldr	r3, [r7, #80]	; 0x50
 8020d06:	f003 0304 	and.w	r3, r3, #4
 8020d0a:	2b00      	cmp	r3, #0
 8020d0c:	d003      	beq.n	8020d16 <print_number+0x82>
 8020d0e:	232b      	movs	r3, #43	; 0x2b
 8020d10:	f887 302f 	strb.w	r3, [r7, #47]	; 0x2f
 8020d14:	e007      	b.n	8020d26 <print_number+0x92>
 8020d16:	6d3b      	ldr	r3, [r7, #80]	; 0x50
 8020d18:	f003 0308 	and.w	r3, r3, #8
 8020d1c:	2b00      	cmp	r3, #0
 8020d1e:	d002      	beq.n	8020d26 <print_number+0x92>
 8020d20:	2320      	movs	r3, #32
 8020d22:	f887 302f 	strb.w	r3, [r7, #47]	; 0x2f
 8020d26:	2500      	movs	r5, #0
 8020d28:	687b      	ldr	r3, [r7, #4]
 8020d2a:	2b00      	cmp	r3, #0
 8020d2c:	d119      	bne.n	8020d62 <print_number+0xce>
 8020d2e:	462b      	mov	r3, r5
 8020d30:	1c5d      	adds	r5, r3, #1
 8020d32:	f107 0230 	add.w	r2, r7, #48	; 0x30
 8020d36:	4413      	add	r3, r2
 8020d38:	2230      	movs	r2, #48	; 0x30
 8020d3a:	f803 2c20 	strb.w	r2, [r3, #-32]
 8020d3e:	e013      	b.n	8020d68 <print_number+0xd4>
 8020d40:	462e      	mov	r6, r5
 8020d42:	1c75      	adds	r5, r6, #1
 8020d44:	1d3b      	adds	r3, r7, #4
 8020d46:	6839      	ldr	r1, [r7, #0]
 8020d48:	4618      	mov	r0, r3
 8020d4a:	f7ff ff4f 	bl	8020bec <divide>
 8020d4e:	4603      	mov	r3, r0
 8020d50:	461a      	mov	r2, r3
 8020d52:	6a7b      	ldr	r3, [r7, #36]	; 0x24
 8020d54:	4413      	add	r3, r2
 8020d56:	781a      	ldrb	r2, [r3, #0]
 8020d58:	f107 0330 	add.w	r3, r7, #48	; 0x30
 8020d5c:	4433      	add	r3, r6
 8020d5e:	f803 2c20 	strb.w	r2, [r3, #-32]
 8020d62:	687b      	ldr	r3, [r7, #4]
 8020d64:	2b00      	cmp	r3, #0
 8020d66:	d1eb      	bne.n	8020d40 <print_number+0xac>
 8020d68:	6cfb      	ldr	r3, [r7, #76]	; 0x4c
 8020d6a:	429d      	cmp	r5, r3
 8020d6c:	dd00      	ble.n	8020d70 <print_number+0xdc>
 8020d6e:	64fd      	str	r5, [r7, #76]	; 0x4c
 8020d70:	6cfb      	ldr	r3, [r7, #76]	; 0x4c
 8020d72:	1ae4      	subs	r4, r4, r3
 8020d74:	6d3b      	ldr	r3, [r7, #80]	; 0x50
 8020d76:	f003 0311 	and.w	r3, r3, #17
 8020d7a:	2b00      	cmp	r3, #0
 8020d7c:	d115      	bne.n	8020daa <print_number+0x116>
 8020d7e:	f897 302f 	ldrb.w	r3, [r7, #47]	; 0x2f
 8020d82:	2b00      	cmp	r3, #0
 8020d84:	d00d      	beq.n	8020da2 <print_number+0x10e>
 8020d86:	2c00      	cmp	r4, #0
 8020d88:	dd0b      	ble.n	8020da2 <print_number+0x10e>
 8020d8a:	3c01      	subs	r4, #1
 8020d8c:	e009      	b.n	8020da2 <print_number+0x10e>
 8020d8e:	68fa      	ldr	r2, [r7, #12]
 8020d90:	68bb      	ldr	r3, [r7, #8]
 8020d92:	429a      	cmp	r2, r3
 8020d94:	d202      	bcs.n	8020d9c <print_number+0x108>
 8020d96:	68fb      	ldr	r3, [r7, #12]
 8020d98:	2220      	movs	r2, #32
 8020d9a:	701a      	strb	r2, [r3, #0]
 8020d9c:	68fb      	ldr	r3, [r7, #12]
 8020d9e:	3301      	adds	r3, #1
 8020da0:	60fb      	str	r3, [r7, #12]
 8020da2:	4623      	mov	r3, r4
 8020da4:	1e5c      	subs	r4, r3, #1
 8020da6:	2b00      	cmp	r3, #0
 8020da8:	dcf1      	bgt.n	8020d8e <print_number+0xfa>
 8020daa:	f897 302f 	ldrb.w	r3, [r7, #47]	; 0x2f
 8020dae:	2b00      	cmp	r3, #0
 8020db0:	d00b      	beq.n	8020dca <print_number+0x136>
 8020db2:	68fa      	ldr	r2, [r7, #12]
 8020db4:	68bb      	ldr	r3, [r7, #8]
 8020db6:	429a      	cmp	r2, r3
 8020db8:	d203      	bcs.n	8020dc2 <print_number+0x12e>
 8020dba:	68fb      	ldr	r3, [r7, #12]
 8020dbc:	f897 202f 	ldrb.w	r2, [r7, #47]	; 0x2f
 8020dc0:	701a      	strb	r2, [r3, #0]
 8020dc2:	3c01      	subs	r4, #1
 8020dc4:	68fb      	ldr	r3, [r7, #12]
 8020dc6:	3301      	adds	r3, #1
 8020dc8:	60fb      	str	r3, [r7, #12]
 8020dca:	6d3b      	ldr	r3, [r7, #80]	; 0x50
 8020dcc:	f003 0310 	and.w	r3, r3, #16
 8020dd0:	2b00      	cmp	r3, #0
 8020dd2:	d11a      	bne.n	8020e0a <print_number+0x176>
 8020dd4:	e00a      	b.n	8020dec <print_number+0x158>
 8020dd6:	68fa      	ldr	r2, [r7, #12]
 8020dd8:	68bb      	ldr	r3, [r7, #8]
 8020dda:	429a      	cmp	r2, r3
 8020ddc:	d203      	bcs.n	8020de6 <print_number+0x152>
 8020dde:	68fb      	ldr	r3, [r7, #12]
 8020de0:	f897 2023 	ldrb.w	r2, [r7, #35]	; 0x23
 8020de4:	701a      	strb	r2, [r3, #0]
 8020de6:	68fb      	ldr	r3, [r7, #12]
 8020de8:	3301      	adds	r3, #1
 8020dea:	60fb      	str	r3, [r7, #12]
 8020dec:	4623      	mov	r3, r4
 8020dee:	1e5c      	subs	r4, r3, #1
 8020df0:	2b00      	cmp	r3, #0
 8020df2:	dcf0      	bgt.n	8020dd6 <print_number+0x142>
 8020df4:	e009      	b.n	8020e0a <print_number+0x176>
 8020df6:	68fa      	ldr	r2, [r7, #12]
 8020df8:	68bb      	ldr	r3, [r7, #8]
 8020dfa:	429a      	cmp	r2, r3
 8020dfc:	d202      	bcs.n	8020e04 <print_number+0x170>
 8020dfe:	68fb      	ldr	r3, [r7, #12]
 8020e00:	2230      	movs	r2, #48	; 0x30
 8020e02:	701a      	strb	r2, [r3, #0]
 8020e04:	68fb      	ldr	r3, [r7, #12]
 8020e06:	3301      	adds	r3, #1
 8020e08:	60fb      	str	r3, [r7, #12]
 8020e0a:	6cfb      	ldr	r3, [r7, #76]	; 0x4c
 8020e0c:	1e5a      	subs	r2, r3, #1
 8020e0e:	64fa      	str	r2, [r7, #76]	; 0x4c
 8020e10:	42ab      	cmp	r3, r5
 8020e12:	dcf0      	bgt.n	8020df6 <print_number+0x162>
 8020e14:	e00d      	b.n	8020e32 <print_number+0x19e>
 8020e16:	68fa      	ldr	r2, [r7, #12]
 8020e18:	68bb      	ldr	r3, [r7, #8]
 8020e1a:	429a      	cmp	r2, r3
 8020e1c:	d206      	bcs.n	8020e2c <print_number+0x198>
 8020e1e:	f107 0330 	add.w	r3, r7, #48	; 0x30
 8020e22:	442b      	add	r3, r5
 8020e24:	f813 2c20 	ldrb.w	r2, [r3, #-32]
 8020e28:	68fb      	ldr	r3, [r7, #12]
 8020e2a:	701a      	strb	r2, [r3, #0]
 8020e2c:	68fb      	ldr	r3, [r7, #12]
 8020e2e:	3301      	adds	r3, #1
 8020e30:	60fb      	str	r3, [r7, #12]
 8020e32:	462b      	mov	r3, r5
 8020e34:	1e5d      	subs	r5, r3, #1
 8020e36:	2b00      	cmp	r3, #0
 8020e38:	dd0d      	ble.n	8020e56 <print_number+0x1c2>
 8020e3a:	6abb      	ldr	r3, [r7, #40]	; 0x28
 8020e3c:	2b00      	cmp	r3, #0
 8020e3e:	d1ea      	bne.n	8020e16 <print_number+0x182>
 8020e40:	e009      	b.n	8020e56 <print_number+0x1c2>
 8020e42:	68fa      	ldr	r2, [r7, #12]
 8020e44:	68bb      	ldr	r3, [r7, #8]
 8020e46:	429a      	cmp	r2, r3
 8020e48:	d202      	bcs.n	8020e50 <print_number+0x1bc>
 8020e4a:	68fb      	ldr	r3, [r7, #12]
 8020e4c:	2220      	movs	r2, #32
 8020e4e:	701a      	strb	r2, [r3, #0]
 8020e50:	68fb      	ldr	r3, [r7, #12]
 8020e52:	3301      	adds	r3, #1
 8020e54:	60fb      	str	r3, [r7, #12]
 8020e56:	4623      	mov	r3, r4
 8020e58:	1e5c      	subs	r4, r3, #1
 8020e5a:	2b00      	cmp	r3, #0
 8020e5c:	dcf1      	bgt.n	8020e42 <print_number+0x1ae>
 8020e5e:	68fb      	ldr	r3, [r7, #12]
 8020e60:	4618      	mov	r0, r3
 8020e62:	3734      	adds	r7, #52	; 0x34
 8020e64:	46bd      	mov	sp, r7
 8020e66:	bdf0      	pop	{r4, r5, r6, r7, pc}
 8020e68:	08025318 	stmdaeq	r2, {r3, r4, r8, r9, ip, lr}
 8020e6c:	0802532c 	stmdaeq	r2, {r2, r3, r5, r8, r9, ip, lr}

08020e70 <rt_vsnprintf>:
 8020e70:	b580      	push	{r7, lr}
 8020e72:	b092      	sub	sp, #72	; 0x48
 8020e74:	af04      	add	r7, sp, #16
 8020e76:	60f8      	str	r0, [r7, #12]
 8020e78:	60b9      	str	r1, [r7, #8]
 8020e7a:	607a      	str	r2, [r7, #4]
 8020e7c:	603b      	str	r3, [r7, #0]
 8020e7e:	68fb      	ldr	r3, [r7, #12]
 8020e80:	62bb      	str	r3, [r7, #40]	; 0x28
 8020e82:	68fa      	ldr	r2, [r7, #12]
 8020e84:	68bb      	ldr	r3, [r7, #8]
 8020e86:	4413      	add	r3, r2
 8020e88:	627b      	str	r3, [r7, #36]	; 0x24
 8020e8a:	6a7a      	ldr	r2, [r7, #36]	; 0x24
 8020e8c:	68fb      	ldr	r3, [r7, #12]
 8020e8e:	429a      	cmp	r2, r3
 8020e90:	f080 8275 	bcs.w	802137e <rt_vsnprintf+0x50e>
 8020e94:	f04f 33ff 	mov.w	r3, #4294967295	; 0xffffffff
 8020e98:	627b      	str	r3, [r7, #36]	; 0x24
 8020e9a:	6a7a      	ldr	r2, [r7, #36]	; 0x24
 8020e9c:	68fb      	ldr	r3, [r7, #12]
 8020e9e:	1ad3      	subs	r3, r2, r3
 8020ea0:	60bb      	str	r3, [r7, #8]
 8020ea2:	e26c      	b.n	802137e <rt_vsnprintf+0x50e>
 8020ea4:	687b      	ldr	r3, [r7, #4]
 8020ea6:	781b      	ldrb	r3, [r3, #0]
 8020ea8:	2b25      	cmp	r3, #37	; 0x25
 8020eaa:	d00b      	beq.n	8020ec4 <rt_vsnprintf+0x54>
 8020eac:	6aba      	ldr	r2, [r7, #40]	; 0x28
 8020eae:	6a7b      	ldr	r3, [r7, #36]	; 0x24
 8020eb0:	429a      	cmp	r2, r3
 8020eb2:	d203      	bcs.n	8020ebc <rt_vsnprintf+0x4c>
 8020eb4:	687b      	ldr	r3, [r7, #4]
 8020eb6:	781a      	ldrb	r2, [r3, #0]
 8020eb8:	6abb      	ldr	r3, [r7, #40]	; 0x28
 8020eba:	701a      	strb	r2, [r3, #0]
 8020ebc:	6abb      	ldr	r3, [r7, #40]	; 0x28
 8020ebe:	3301      	adds	r3, #1
 8020ec0:	62bb      	str	r3, [r7, #40]	; 0x28
 8020ec2:	e259      	b.n	8021378 <rt_vsnprintf+0x508>
 8020ec4:	2300      	movs	r3, #0
 8020ec6:	77bb      	strb	r3, [r7, #30]
 8020ec8:	687b      	ldr	r3, [r7, #4]
 8020eca:	3301      	adds	r3, #1
 8020ecc:	607b      	str	r3, [r7, #4]
 8020ece:	687b      	ldr	r3, [r7, #4]
 8020ed0:	781b      	ldrb	r3, [r3, #0]
 8020ed2:	2b2d      	cmp	r3, #45	; 0x2d
 8020ed4:	d104      	bne.n	8020ee0 <rt_vsnprintf+0x70>
 8020ed6:	7fbb      	ldrb	r3, [r7, #30]
 8020ed8:	f043 0310 	orr.w	r3, r3, #16
 8020edc:	77bb      	strb	r3, [r7, #30]
 8020ede:	e7f3      	b.n	8020ec8 <rt_vsnprintf+0x58>
 8020ee0:	687b      	ldr	r3, [r7, #4]
 8020ee2:	781b      	ldrb	r3, [r3, #0]
 8020ee4:	2b2b      	cmp	r3, #43	; 0x2b
 8020ee6:	d104      	bne.n	8020ef2 <rt_vsnprintf+0x82>
 8020ee8:	7fbb      	ldrb	r3, [r7, #30]
 8020eea:	f043 0304 	orr.w	r3, r3, #4
 8020eee:	77bb      	strb	r3, [r7, #30]
 8020ef0:	e7ea      	b.n	8020ec8 <rt_vsnprintf+0x58>
 8020ef2:	687b      	ldr	r3, [r7, #4]
 8020ef4:	781b      	ldrb	r3, [r3, #0]
 8020ef6:	2b20      	cmp	r3, #32
 8020ef8:	d104      	bne.n	8020f04 <rt_vsnprintf+0x94>
 8020efa:	7fbb      	ldrb	r3, [r7, #30]
 8020efc:	f043 0308 	orr.w	r3, r3, #8
 8020f00:	77bb      	strb	r3, [r7, #30]
 8020f02:	e7e1      	b.n	8020ec8 <rt_vsnprintf+0x58>
 8020f04:	687b      	ldr	r3, [r7, #4]
 8020f06:	781b      	ldrb	r3, [r3, #0]
 8020f08:	2b23      	cmp	r3, #35	; 0x23
 8020f0a:	d104      	bne.n	8020f16 <rt_vsnprintf+0xa6>
 8020f0c:	7fbb      	ldrb	r3, [r7, #30]
 8020f0e:	f043 0320 	orr.w	r3, r3, #32
 8020f12:	77bb      	strb	r3, [r7, #30]
 8020f14:	e7d8      	b.n	8020ec8 <rt_vsnprintf+0x58>
 8020f16:	687b      	ldr	r3, [r7, #4]
 8020f18:	781b      	ldrb	r3, [r3, #0]
 8020f1a:	2b30      	cmp	r3, #48	; 0x30
 8020f1c:	d104      	bne.n	8020f28 <rt_vsnprintf+0xb8>
 8020f1e:	7fbb      	ldrb	r3, [r7, #30]
 8020f20:	f043 0301 	orr.w	r3, r3, #1
 8020f24:	77bb      	strb	r3, [r7, #30]
 8020f26:	e7cf      	b.n	8020ec8 <rt_vsnprintf+0x58>
 8020f28:	bf00      	nop
 8020f2a:	f04f 33ff 	mov.w	r3, #4294967295	; 0xffffffff
 8020f2e:	61bb      	str	r3, [r7, #24]
 8020f30:	687b      	ldr	r3, [r7, #4]
 8020f32:	781b      	ldrb	r3, [r3, #0]
 8020f34:	3b30      	subs	r3, #48	; 0x30
 8020f36:	2b09      	cmp	r3, #9
 8020f38:	d805      	bhi.n	8020f46 <rt_vsnprintf+0xd6>
 8020f3a:	1d3b      	adds	r3, r7, #4
 8020f3c:	4618      	mov	r0, r3
 8020f3e:	f7ff fe89 	bl	8020c54 <skip_atoi>
 8020f42:	61b8      	str	r0, [r7, #24]
 8020f44:	e015      	b.n	8020f72 <rt_vsnprintf+0x102>
 8020f46:	687b      	ldr	r3, [r7, #4]
 8020f48:	781b      	ldrb	r3, [r3, #0]
 8020f4a:	2b2a      	cmp	r3, #42	; 0x2a
 8020f4c:	d111      	bne.n	8020f72 <rt_vsnprintf+0x102>
 8020f4e:	687b      	ldr	r3, [r7, #4]
 8020f50:	3301      	adds	r3, #1
 8020f52:	607b      	str	r3, [r7, #4]
 8020f54:	683b      	ldr	r3, [r7, #0]
 8020f56:	1d1a      	adds	r2, r3, #4
 8020f58:	603a      	str	r2, [r7, #0]
 8020f5a:	681b      	ldr	r3, [r3, #0]
 8020f5c:	61bb      	str	r3, [r7, #24]
 8020f5e:	69bb      	ldr	r3, [r7, #24]
 8020f60:	2b00      	cmp	r3, #0
 8020f62:	da06      	bge.n	8020f72 <rt_vsnprintf+0x102>
 8020f64:	69bb      	ldr	r3, [r7, #24]
 8020f66:	425b      	negs	r3, r3
 8020f68:	61bb      	str	r3, [r7, #24]
 8020f6a:	7fbb      	ldrb	r3, [r7, #30]
 8020f6c:	f043 0310 	orr.w	r3, r3, #16
 8020f70:	77bb      	strb	r3, [r7, #30]
 8020f72:	f04f 33ff 	mov.w	r3, #4294967295	; 0xffffffff
 8020f76:	617b      	str	r3, [r7, #20]
 8020f78:	687b      	ldr	r3, [r7, #4]
 8020f7a:	781b      	ldrb	r3, [r3, #0]
 8020f7c:	2b2e      	cmp	r3, #46	; 0x2e
 8020f7e:	d11e      	bne.n	8020fbe <rt_vsnprintf+0x14e>
 8020f80:	687b      	ldr	r3, [r7, #4]
 8020f82:	3301      	adds	r3, #1
 8020f84:	607b      	str	r3, [r7, #4]
 8020f86:	687b      	ldr	r3, [r7, #4]
 8020f88:	781b      	ldrb	r3, [r3, #0]
 8020f8a:	3b30      	subs	r3, #48	; 0x30
 8020f8c:	2b09      	cmp	r3, #9
 8020f8e:	d805      	bhi.n	8020f9c <rt_vsnprintf+0x12c>
 8020f90:	1d3b      	adds	r3, r7, #4
 8020f92:	4618      	mov	r0, r3
 8020f94:	f7ff fe5e 	bl	8020c54 <skip_atoi>
 8020f98:	6178      	str	r0, [r7, #20]
 8020f9a:	e00b      	b.n	8020fb4 <rt_vsnprintf+0x144>
 8020f9c:	687b      	ldr	r3, [r7, #4]
 8020f9e:	781b      	ldrb	r3, [r3, #0]
 8020fa0:	2b2a      	cmp	r3, #42	; 0x2a
 8020fa2:	d107      	bne.n	8020fb4 <rt_vsnprintf+0x144>
 8020fa4:	687b      	ldr	r3, [r7, #4]
 8020fa6:	3301      	adds	r3, #1
 8020fa8:	607b      	str	r3, [r7, #4]
 8020faa:	683b      	ldr	r3, [r7, #0]
 8020fac:	1d1a      	adds	r2, r3, #4
 8020fae:	603a      	str	r2, [r7, #0]
 8020fb0:	681b      	ldr	r3, [r3, #0]
 8020fb2:	617b      	str	r3, [r7, #20]
 8020fb4:	697b      	ldr	r3, [r7, #20]
 8020fb6:	2b00      	cmp	r3, #0
 8020fb8:	da01      	bge.n	8020fbe <rt_vsnprintf+0x14e>
 8020fba:	2300      	movs	r3, #0
 8020fbc:	617b      	str	r3, [r7, #20]
 8020fbe:	2300      	movs	r3, #0
 8020fc0:	777b      	strb	r3, [r7, #29]
 8020fc2:	687b      	ldr	r3, [r7, #4]
 8020fc4:	781b      	ldrb	r3, [r3, #0]
 8020fc6:	2b68      	cmp	r3, #104	; 0x68
 8020fc8:	d003      	beq.n	8020fd2 <rt_vsnprintf+0x162>
 8020fca:	687b      	ldr	r3, [r7, #4]
 8020fcc:	781b      	ldrb	r3, [r3, #0]
 8020fce:	2b6c      	cmp	r3, #108	; 0x6c
 8020fd0:	d105      	bne.n	8020fde <rt_vsnprintf+0x16e>
 8020fd2:	687b      	ldr	r3, [r7, #4]
 8020fd4:	781b      	ldrb	r3, [r3, #0]
 8020fd6:	777b      	strb	r3, [r7, #29]
 8020fd8:	687b      	ldr	r3, [r7, #4]
 8020fda:	3301      	adds	r3, #1
 8020fdc:	607b      	str	r3, [r7, #4]
 8020fde:	230a      	movs	r3, #10
 8020fe0:	77fb      	strb	r3, [r7, #31]
 8020fe2:	687b      	ldr	r3, [r7, #4]
 8020fe4:	781b      	ldrb	r3, [r3, #0]
 8020fe6:	3b25      	subs	r3, #37	; 0x25
 8020fe8:	2b53      	cmp	r3, #83	; 0x53
 8020fea:	f200 8170 	bhi.w	80212ce <rt_vsnprintf+0x45e>
 8020fee:	a201      	add	r2, pc, #4	; (adr r2, 8020ff4 <rt_vsnprintf+0x184>)
 8020ff0:	f852 f023 	ldr.w	pc, [r2, r3, lsl #2]
 8020ff4:	0802129b 	stmdaeq	r2, {r0, r1, r3, r4, r7, r9, ip}
 8020ff8:	080212cf 	stmdaeq	r2, {r0, r1, r2, r3, r6, r7, r9, ip}
 8020ffc:	080212cf 	stmdaeq	r2, {r0, r1, r2, r3, r6, r7, r9, ip}
 8021000:	080212cf 	stmdaeq	r2, {r0, r1, r2, r3, r6, r7, r9, ip}
 8021004:	080212cf 	stmdaeq	r2, {r0, r1, r2, r3, r6, r7, r9, ip}
 8021008:	080212cf 	stmdaeq	r2, {r0, r1, r2, r3, r6, r7, r9, ip}
 802100c:	080212cf 	stmdaeq	r2, {r0, r1, r2, r3, r6, r7, r9, ip}
 8021010:	080212cf 	stmdaeq	r2, {r0, r1, r2, r3, r6, r7, r9, ip}
 8021014:	080212cf 	stmdaeq	r2, {r0, r1, r2, r3, r6, r7, r9, ip}
 8021018:	080212cf 	stmdaeq	r2, {r0, r1, r2, r3, r6, r7, r9, ip}
 802101c:	080212cf 	stmdaeq	r2, {r0, r1, r2, r3, r6, r7, r9, ip}
 8021020:	080212cf 	stmdaeq	r2, {r0, r1, r2, r3, r6, r7, r9, ip}
 8021024:	080212cf 	stmdaeq	r2, {r0, r1, r2, r3, r6, r7, r9, ip}
 8021028:	080212cf 	stmdaeq	r2, {r0, r1, r2, r3, r6, r7, r9, ip}
 802102c:	080212cf 	stmdaeq	r2, {r0, r1, r2, r3, r6, r7, r9, ip}
 8021030:	080212cf 	stmdaeq	r2, {r0, r1, r2, r3, r6, r7, r9, ip}
 8021034:	080212cf 	stmdaeq	r2, {r0, r1, r2, r3, r6, r7, r9, ip}
 8021038:	080212cf 	stmdaeq	r2, {r0, r1, r2, r3, r6, r7, r9, ip}
 802103c:	080212cf 	stmdaeq	r2, {r0, r1, r2, r3, r6, r7, r9, ip}
 8021040:	080212cf 	stmdaeq	r2, {r0, r1, r2, r3, r6, r7, r9, ip}
 8021044:	080212cf 	stmdaeq	r2, {r0, r1, r2, r3, r6, r7, r9, ip}
 8021048:	080212cf 	stmdaeq	r2, {r0, r1, r2, r3, r6, r7, r9, ip}
 802104c:	080212cf 	stmdaeq	r2, {r0, r1, r2, r3, r6, r7, r9, ip}
 8021050:	080212cf 	stmdaeq	r2, {r0, r1, r2, r3, r6, r7, r9, ip}
 8021054:	080212cf 	stmdaeq	r2, {r0, r1, r2, r3, r6, r7, r9, ip}
 8021058:	080212cf 	stmdaeq	r2, {r0, r1, r2, r3, r6, r7, r9, ip}
 802105c:	080212cf 	stmdaeq	r2, {r0, r1, r2, r3, r6, r7, r9, ip}
 8021060:	080212cf 	stmdaeq	r2, {r0, r1, r2, r3, r6, r7, r9, ip}
 8021064:	080212cf 	stmdaeq	r2, {r0, r1, r2, r3, r6, r7, r9, ip}
 8021068:	080212cf 	stmdaeq	r2, {r0, r1, r2, r3, r6, r7, r9, ip}
 802106c:	080212cf 	stmdaeq	r2, {r0, r1, r2, r3, r6, r7, r9, ip}
 8021070:	080212cf 	stmdaeq	r2, {r0, r1, r2, r3, r6, r7, r9, ip}
 8021074:	080212cf 	stmdaeq	r2, {r0, r1, r2, r3, r6, r7, r9, ip}
 8021078:	080212cf 	stmdaeq	r2, {r0, r1, r2, r3, r6, r7, r9, ip}
 802107c:	080212cf 	stmdaeq	r2, {r0, r1, r2, r3, r6, r7, r9, ip}
 8021080:	080212cf 	stmdaeq	r2, {r0, r1, r2, r3, r6, r7, r9, ip}
 8021084:	080212cf 	stmdaeq	r2, {r0, r1, r2, r3, r6, r7, r9, ip}
 8021088:	080212cf 	stmdaeq	r2, {r0, r1, r2, r3, r6, r7, r9, ip}
 802108c:	080212cf 	stmdaeq	r2, {r0, r1, r2, r3, r6, r7, r9, ip}
 8021090:	080212cf 	stmdaeq	r2, {r0, r1, r2, r3, r6, r7, r9, ip}
 8021094:	080212cf 	stmdaeq	r2, {r0, r1, r2, r3, r6, r7, r9, ip}
 8021098:	080212cf 	stmdaeq	r2, {r0, r1, r2, r3, r6, r7, r9, ip}
 802109c:	080212cf 	stmdaeq	r2, {r0, r1, r2, r3, r6, r7, r9, ip}
 80210a0:	080212cf 	stmdaeq	r2, {r0, r1, r2, r3, r6, r7, r9, ip}
 80210a4:	080212cf 	stmdaeq	r2, {r0, r1, r2, r3, r6, r7, r9, ip}
 80210a8:	080212cf 	stmdaeq	r2, {r0, r1, r2, r3, r6, r7, r9, ip}
 80210ac:	080212cf 	stmdaeq	r2, {r0, r1, r2, r3, r6, r7, r9, ip}
 80210b0:	080212cf 	stmdaeq	r2, {r0, r1, r2, r3, r6, r7, r9, ip}
 80210b4:	080212cf 	stmdaeq	r2, {r0, r1, r2, r3, r6, r7, r9, ip}
 80210b8:	080212cf 	stmdaeq	r2, {r0, r1, r2, r3, r6, r7, r9, ip}
 80210bc:	080212cf 	stmdaeq	r2, {r0, r1, r2, r3, r6, r7, r9, ip}
 80210c0:	080212b7 	stmdaeq	r2, {r0, r1, r2, r4, r5, r7, r9, ip}
 80210c4:	080212cf 	stmdaeq	r2, {r0, r1, r2, r3, r6, r7, r9, ip}
 80210c8:	080212cf 	stmdaeq	r2, {r0, r1, r2, r3, r6, r7, r9, ip}
 80210cc:	080212cf 	stmdaeq	r2, {r0, r1, r2, r3, r6, r7, r9, ip}
 80210d0:	080212cf 	stmdaeq	r2, {r0, r1, r2, r3, r6, r7, r9, ip}
 80210d4:	080212cf 	stmdaeq	r2, {r0, r1, r2, r3, r6, r7, r9, ip}
 80210d8:	080212cf 	stmdaeq	r2, {r0, r1, r2, r3, r6, r7, r9, ip}
 80210dc:	080212cf 	stmdaeq	r2, {r0, r1, r2, r3, r6, r7, r9, ip}
 80210e0:	080212cf 	stmdaeq	r2, {r0, r1, r2, r3, r6, r7, r9, ip}
 80210e4:	080212cf 	stmdaeq	r2, {r0, r1, r2, r3, r6, r7, r9, ip}
 80210e8:	080212cf 	stmdaeq	r2, {r0, r1, r2, r3, r6, r7, r9, ip}
 80210ec:	08021145 	stmdaeq	r2, {r0, r2, r6, r8, ip}
 80210f0:	080212c5 	stmdaeq	r2, {r0, r2, r6, r7, r9, ip}
 80210f4:	080212cf 	stmdaeq	r2, {r0, r1, r2, r3, r6, r7, r9, ip}
 80210f8:	080212cf 	stmdaeq	r2, {r0, r1, r2, r3, r6, r7, r9, ip}
 80210fc:	080212cf 	stmdaeq	r2, {r0, r1, r2, r3, r6, r7, r9, ip}
 8021100:	080212cf 	stmdaeq	r2, {r0, r1, r2, r3, r6, r7, r9, ip}
 8021104:	080212c5 	stmdaeq	r2, {r0, r2, r6, r7, r9, ip}
 8021108:	080212cf 	stmdaeq	r2, {r0, r1, r2, r3, r6, r7, r9, ip}
 802110c:	080212cf 	stmdaeq	r2, {r0, r1, r2, r3, r6, r7, r9, ip}
 8021110:	080212cf 	stmdaeq	r2, {r0, r1, r2, r3, r6, r7, r9, ip}
 8021114:	080212cf 	stmdaeq	r2, {r0, r1, r2, r3, r6, r7, r9, ip}
 8021118:	080212cf 	stmdaeq	r2, {r0, r1, r2, r3, r6, r7, r9, ip}
 802111c:	080212b1 	stmdaeq	r2, {r0, r4, r5, r7, r9, ip}
 8021120:	08021263 	stmdaeq	r2, {r0, r1, r5, r6, r9, ip}
 8021124:	080212cf 	stmdaeq	r2, {r0, r1, r2, r3, r6, r7, r9, ip}
 8021128:	080212cf 	stmdaeq	r2, {r0, r1, r2, r3, r6, r7, r9, ip}
 802112c:	080211b3 	stmdaeq	r2, {r0, r1, r4, r5, r7, r8, ip}
 8021130:	080212cf 	stmdaeq	r2, {r0, r1, r2, r3, r6, r7, r9, ip}
 8021134:	0802130b 	stmdaeq	r2, {r0, r1, r3, r8, r9, ip}
 8021138:	080212cf 	stmdaeq	r2, {r0, r1, r2, r3, r6, r7, r9, ip}
 802113c:	080212cf 	stmdaeq	r2, {r0, r1, r2, r3, r6, r7, r9, ip}
 8021140:	080212bf 	stmdaeq	r2, {r0, r1, r2, r3, r4, r5, r7, r9, ip}
 8021144:	7fbb      	ldrb	r3, [r7, #30]
 8021146:	f003 0310 	and.w	r3, r3, #16
 802114a:	2b00      	cmp	r3, #0
 802114c:	d110      	bne.n	8021170 <rt_vsnprintf+0x300>
 802114e:	e009      	b.n	8021164 <rt_vsnprintf+0x2f4>
 8021150:	6aba      	ldr	r2, [r7, #40]	; 0x28
 8021152:	6a7b      	ldr	r3, [r7, #36]	; 0x24
 8021154:	429a      	cmp	r2, r3
 8021156:	d202      	bcs.n	802115e <rt_vsnprintf+0x2ee>
 8021158:	6abb      	ldr	r3, [r7, #40]	; 0x28
 802115a:	2220      	movs	r2, #32
 802115c:	701a      	strb	r2, [r3, #0]
 802115e:	6abb      	ldr	r3, [r7, #40]	; 0x28
 8021160:	3301      	adds	r3, #1
 8021162:	62bb      	str	r3, [r7, #40]	; 0x28
 8021164:	69bb      	ldr	r3, [r7, #24]
 8021166:	3b01      	subs	r3, #1
 8021168:	61bb      	str	r3, [r7, #24]
 802116a:	69bb      	ldr	r3, [r7, #24]
 802116c:	2b00      	cmp	r3, #0
 802116e:	dcef      	bgt.n	8021150 <rt_vsnprintf+0x2e0>
 8021170:	683b      	ldr	r3, [r7, #0]
 8021172:	1d1a      	adds	r2, r3, #4
 8021174:	603a      	str	r2, [r7, #0]
 8021176:	681b      	ldr	r3, [r3, #0]
 8021178:	74fb      	strb	r3, [r7, #19]
 802117a:	6aba      	ldr	r2, [r7, #40]	; 0x28
 802117c:	6a7b      	ldr	r3, [r7, #36]	; 0x24
 802117e:	429a      	cmp	r2, r3
 8021180:	d202      	bcs.n	8021188 <rt_vsnprintf+0x318>
 8021182:	6abb      	ldr	r3, [r7, #40]	; 0x28
 8021184:	7cfa      	ldrb	r2, [r7, #19]
 8021186:	701a      	strb	r2, [r3, #0]
 8021188:	6abb      	ldr	r3, [r7, #40]	; 0x28
 802118a:	3301      	adds	r3, #1
 802118c:	62bb      	str	r3, [r7, #40]	; 0x28
 802118e:	e009      	b.n	80211a4 <rt_vsnprintf+0x334>
 8021190:	6aba      	ldr	r2, [r7, #40]	; 0x28
 8021192:	6a7b      	ldr	r3, [r7, #36]	; 0x24
 8021194:	429a      	cmp	r2, r3
 8021196:	d202      	bcs.n	802119e <rt_vsnprintf+0x32e>
 8021198:	6abb      	ldr	r3, [r7, #40]	; 0x28
 802119a:	2220      	movs	r2, #32
 802119c:	701a      	strb	r2, [r3, #0]
 802119e:	6abb      	ldr	r3, [r7, #40]	; 0x28
 80211a0:	3301      	adds	r3, #1
 80211a2:	62bb      	str	r3, [r7, #40]	; 0x28
 80211a4:	69bb      	ldr	r3, [r7, #24]
 80211a6:	3b01      	subs	r3, #1
 80211a8:	61bb      	str	r3, [r7, #24]
 80211aa:	69bb      	ldr	r3, [r7, #24]
 80211ac:	2b00      	cmp	r3, #0
 80211ae:	dcef      	bgt.n	8021190 <rt_vsnprintf+0x320>
 80211b0:	e0e2      	b.n	8021378 <rt_vsnprintf+0x508>
 80211b2:	683b      	ldr	r3, [r7, #0]
 80211b4:	1d1a      	adds	r2, r3, #4
 80211b6:	603a      	str	r2, [r7, #0]
 80211b8:	681b      	ldr	r3, [r3, #0]
 80211ba:	623b      	str	r3, [r7, #32]
 80211bc:	6a3b      	ldr	r3, [r7, #32]
 80211be:	2b00      	cmp	r3, #0
 80211c0:	d101      	bne.n	80211c6 <rt_vsnprintf+0x356>
 80211c2:	4b7c      	ldr	r3, [pc, #496]	; (80213b4 <rt_vsnprintf+0x544>)
 80211c4:	623b      	str	r3, [r7, #32]
 80211c6:	6a38      	ldr	r0, [r7, #32]
 80211c8:	f7ff fcd6 	bl	8020b78 <rt_strlen>
 80211cc:	4603      	mov	r3, r0
 80211ce:	62fb      	str	r3, [r7, #44]	; 0x2c
 80211d0:	697b      	ldr	r3, [r7, #20]
 80211d2:	2b00      	cmp	r3, #0
 80211d4:	dd05      	ble.n	80211e2 <rt_vsnprintf+0x372>
 80211d6:	6afa      	ldr	r2, [r7, #44]	; 0x2c
 80211d8:	697b      	ldr	r3, [r7, #20]
 80211da:	429a      	cmp	r2, r3
 80211dc:	dd01      	ble.n	80211e2 <rt_vsnprintf+0x372>
 80211de:	697b      	ldr	r3, [r7, #20]
 80211e0:	62fb      	str	r3, [r7, #44]	; 0x2c
 80211e2:	7fbb      	ldrb	r3, [r7, #30]
 80211e4:	f003 0310 	and.w	r3, r3, #16
 80211e8:	2b00      	cmp	r3, #0
 80211ea:	d110      	bne.n	802120e <rt_vsnprintf+0x39e>
 80211ec:	e009      	b.n	8021202 <rt_vsnprintf+0x392>
 80211ee:	6aba      	ldr	r2, [r7, #40]	; 0x28
 80211f0:	6a7b      	ldr	r3, [r7, #36]	; 0x24
 80211f2:	429a      	cmp	r2, r3
 80211f4:	d202      	bcs.n	80211fc <rt_vsnprintf+0x38c>
 80211f6:	6abb      	ldr	r3, [r7, #40]	; 0x28
 80211f8:	2220      	movs	r2, #32
 80211fa:	701a      	strb	r2, [r3, #0]
 80211fc:	6abb      	ldr	r3, [r7, #40]	; 0x28
 80211fe:	3301      	adds	r3, #1
 8021200:	62bb      	str	r3, [r7, #40]	; 0x28
 8021202:	69bb      	ldr	r3, [r7, #24]
 8021204:	1e5a      	subs	r2, r3, #1
 8021206:	61ba      	str	r2, [r7, #24]
 8021208:	6afa      	ldr	r2, [r7, #44]	; 0x2c
 802120a:	4293      	cmp	r3, r2
 802120c:	dcef      	bgt.n	80211ee <rt_vsnprintf+0x37e>
 802120e:	2300      	movs	r3, #0
 8021210:	633b      	str	r3, [r7, #48]	; 0x30
 8021212:	e010      	b.n	8021236 <rt_vsnprintf+0x3c6>
 8021214:	6aba      	ldr	r2, [r7, #40]	; 0x28
 8021216:	6a7b      	ldr	r3, [r7, #36]	; 0x24
 8021218:	429a      	cmp	r2, r3
 802121a:	d203      	bcs.n	8021224 <rt_vsnprintf+0x3b4>
 802121c:	6a3b      	ldr	r3, [r7, #32]
 802121e:	781a      	ldrb	r2, [r3, #0]
 8021220:	6abb      	ldr	r3, [r7, #40]	; 0x28
 8021222:	701a      	strb	r2, [r3, #0]
 8021224:	6abb      	ldr	r3, [r7, #40]	; 0x28
 8021226:	3301      	adds	r3, #1
 8021228:	62bb      	str	r3, [r7, #40]	; 0x28
 802122a:	6a3b      	ldr	r3, [r7, #32]
 802122c:	3301      	adds	r3, #1
 802122e:	623b      	str	r3, [r7, #32]
 8021230:	6b3b      	ldr	r3, [r7, #48]	; 0x30
 8021232:	3301      	adds	r3, #1
 8021234:	633b      	str	r3, [r7, #48]	; 0x30
 8021236:	6b3a      	ldr	r2, [r7, #48]	; 0x30
 8021238:	6afb      	ldr	r3, [r7, #44]	; 0x2c
 802123a:	429a      	cmp	r2, r3
 802123c:	dbea      	blt.n	8021214 <rt_vsnprintf+0x3a4>
 802123e:	e009      	b.n	8021254 <rt_vsnprintf+0x3e4>
 8021240:	6aba      	ldr	r2, [r7, #40]	; 0x28
 8021242:	6a7b      	ldr	r3, [r7, #36]	; 0x24
 8021244:	429a      	cmp	r2, r3
 8021246:	d202      	bcs.n	802124e <rt_vsnprintf+0x3de>
 8021248:	6abb      	ldr	r3, [r7, #40]	; 0x28
 802124a:	2220      	movs	r2, #32
 802124c:	701a      	strb	r2, [r3, #0]
 802124e:	6abb      	ldr	r3, [r7, #40]	; 0x28
 8021250:	3301      	adds	r3, #1
 8021252:	62bb      	str	r3, [r7, #40]	; 0x28
 8021254:	69bb      	ldr	r3, [r7, #24]
 8021256:	1e5a      	subs	r2, r3, #1
 8021258:	61ba      	str	r2, [r7, #24]
 802125a:	6afa      	ldr	r2, [r7, #44]	; 0x2c
 802125c:	4293      	cmp	r3, r2
 802125e:	dcef      	bgt.n	8021240 <rt_vsnprintf+0x3d0>
 8021260:	e08a      	b.n	8021378 <rt_vsnprintf+0x508>
 8021262:	69bb      	ldr	r3, [r7, #24]
 8021264:	f1b3 3fff 	cmp.w	r3, #4294967295	; 0xffffffff
 8021268:	d105      	bne.n	8021276 <rt_vsnprintf+0x406>
 802126a:	2308      	movs	r3, #8
 802126c:	61bb      	str	r3, [r7, #24]
 802126e:	7fbb      	ldrb	r3, [r7, #30]
 8021270:	f043 0301 	orr.w	r3, r3, #1
 8021274:	77bb      	strb	r3, [r7, #30]
 8021276:	683b      	ldr	r3, [r7, #0]
 8021278:	1d1a      	adds	r2, r3, #4
 802127a:	603a      	str	r2, [r7, #0]
 802127c:	681b      	ldr	r3, [r3, #0]
 802127e:	461a      	mov	r2, r3
 8021280:	7fbb      	ldrb	r3, [r7, #30]
 8021282:	9302      	str	r3, [sp, #8]
 8021284:	697b      	ldr	r3, [r7, #20]
 8021286:	9301      	str	r3, [sp, #4]
 8021288:	69bb      	ldr	r3, [r7, #24]
 802128a:	9300      	str	r3, [sp, #0]
 802128c:	2310      	movs	r3, #16
 802128e:	6a79      	ldr	r1, [r7, #36]	; 0x24
 8021290:	6ab8      	ldr	r0, [r7, #40]	; 0x28
 8021292:	f7ff fcff 	bl	8020c94 <print_number>
 8021296:	62b8      	str	r0, [r7, #40]	; 0x28
 8021298:	e06e      	b.n	8021378 <rt_vsnprintf+0x508>
 802129a:	6aba      	ldr	r2, [r7, #40]	; 0x28
 802129c:	6a7b      	ldr	r3, [r7, #36]	; 0x24
 802129e:	429a      	cmp	r2, r3
 80212a0:	d202      	bcs.n	80212a8 <rt_vsnprintf+0x438>
 80212a2:	6abb      	ldr	r3, [r7, #40]	; 0x28
 80212a4:	2225      	movs	r2, #37	; 0x25
 80212a6:	701a      	strb	r2, [r3, #0]
 80212a8:	6abb      	ldr	r3, [r7, #40]	; 0x28
 80212aa:	3301      	adds	r3, #1
 80212ac:	62bb      	str	r3, [r7, #40]	; 0x28
 80212ae:	e063      	b.n	8021378 <rt_vsnprintf+0x508>
 80212b0:	2308      	movs	r3, #8
 80212b2:	77fb      	strb	r3, [r7, #31]
 80212b4:	e02a      	b.n	802130c <rt_vsnprintf+0x49c>
 80212b6:	7fbb      	ldrb	r3, [r7, #30]
 80212b8:	f043 0340 	orr.w	r3, r3, #64	; 0x40
 80212bc:	77bb      	strb	r3, [r7, #30]
 80212be:	2310      	movs	r3, #16
 80212c0:	77fb      	strb	r3, [r7, #31]
 80212c2:	e023      	b.n	802130c <rt_vsnprintf+0x49c>
 80212c4:	7fbb      	ldrb	r3, [r7, #30]
 80212c6:	f043 0302 	orr.w	r3, r3, #2
 80212ca:	77bb      	strb	r3, [r7, #30]
 80212cc:	e01d      	b.n	802130a <rt_vsnprintf+0x49a>
 80212ce:	6aba      	ldr	r2, [r7, #40]	; 0x28
 80212d0:	6a7b      	ldr	r3, [r7, #36]	; 0x24
 80212d2:	429a      	cmp	r2, r3
 80212d4:	d202      	bcs.n	80212dc <rt_vsnprintf+0x46c>
 80212d6:	6abb      	ldr	r3, [r7, #40]	; 0x28
 80212d8:	2225      	movs	r2, #37	; 0x25
 80212da:	701a      	strb	r2, [r3, #0]
 80212dc:	6abb      	ldr	r3, [r7, #40]	; 0x28
 80212de:	3301      	adds	r3, #1
 80212e0:	62bb      	str	r3, [r7, #40]	; 0x28
 80212e2:	687b      	ldr	r3, [r7, #4]
 80212e4:	781b      	ldrb	r3, [r3, #0]
 80212e6:	2b00      	cmp	r3, #0
 80212e8:	d00b      	beq.n	8021302 <rt_vsnprintf+0x492>
 80212ea:	6aba      	ldr	r2, [r7, #40]	; 0x28
 80212ec:	6a7b      	ldr	r3, [r7, #36]	; 0x24
 80212ee:	429a      	cmp	r2, r3
 80212f0:	d203      	bcs.n	80212fa <rt_vsnprintf+0x48a>
 80212f2:	687b      	ldr	r3, [r7, #4]
 80212f4:	781a      	ldrb	r2, [r3, #0]
 80212f6:	6abb      	ldr	r3, [r7, #40]	; 0x28
 80212f8:	701a      	strb	r2, [r3, #0]
 80212fa:	6abb      	ldr	r3, [r7, #40]	; 0x28
 80212fc:	3301      	adds	r3, #1
 80212fe:	62bb      	str	r3, [r7, #40]	; 0x28
 8021300:	e03a      	b.n	8021378 <rt_vsnprintf+0x508>
 8021302:	687b      	ldr	r3, [r7, #4]
 8021304:	3b01      	subs	r3, #1
 8021306:	607b      	str	r3, [r7, #4]
 8021308:	e036      	b.n	8021378 <rt_vsnprintf+0x508>
 802130a:	bf00      	nop
 802130c:	7f7b      	ldrb	r3, [r7, #29]
 802130e:	2b6c      	cmp	r3, #108	; 0x6c
 8021310:	d109      	bne.n	8021326 <rt_vsnprintf+0x4b6>
 8021312:	683b      	ldr	r3, [r7, #0]
 8021314:	1d1a      	adds	r2, r3, #4
 8021316:	603a      	str	r2, [r7, #0]
 8021318:	681b      	ldr	r3, [r3, #0]
 802131a:	637b      	str	r3, [r7, #52]	; 0x34
 802131c:	7fbb      	ldrb	r3, [r7, #30]
 802131e:	f003 0302 	and.w	r3, r3, #2
 8021322:	2b00      	cmp	r3, #0
 8021324:	e01a      	b.n	802135c <rt_vsnprintf+0x4ec>
 8021326:	7f7b      	ldrb	r3, [r7, #29]
 8021328:	2b68      	cmp	r3, #104	; 0x68
 802132a:	d10e      	bne.n	802134a <rt_vsnprintf+0x4da>
 802132c:	683b      	ldr	r3, [r7, #0]
 802132e:	1d1a      	adds	r2, r3, #4
 8021330:	603a      	str	r2, [r7, #0]
 8021332:	681b      	ldr	r3, [r3, #0]
 8021334:	b29b      	uxth	r3, r3
 8021336:	637b      	str	r3, [r7, #52]	; 0x34
 8021338:	7fbb      	ldrb	r3, [r7, #30]
 802133a:	f003 0302 	and.w	r3, r3, #2
 802133e:	2b00      	cmp	r3, #0
 8021340:	d00c      	beq.n	802135c <rt_vsnprintf+0x4ec>
 8021342:	6b7b      	ldr	r3, [r7, #52]	; 0x34
 8021344:	b21b      	sxth	r3, r3
 8021346:	637b      	str	r3, [r7, #52]	; 0x34
 8021348:	e008      	b.n	802135c <rt_vsnprintf+0x4ec>
 802134a:	683b      	ldr	r3, [r7, #0]
 802134c:	1d1a      	adds	r2, r3, #4
 802134e:	603a      	str	r2, [r7, #0]
 8021350:	681b      	ldr	r3, [r3, #0]
 8021352:	637b      	str	r3, [r7, #52]	; 0x34
 8021354:	7fbb      	ldrb	r3, [r7, #30]
 8021356:	f003 0302 	and.w	r3, r3, #2
 802135a:	2b00      	cmp	r3, #0
 802135c:	6b7a      	ldr	r2, [r7, #52]	; 0x34
 802135e:	7ff9      	ldrb	r1, [r7, #31]
 8021360:	7fbb      	ldrb	r3, [r7, #30]
 8021362:	9302      	str	r3, [sp, #8]
 8021364:	697b      	ldr	r3, [r7, #20]
 8021366:	9301      	str	r3, [sp, #4]
 8021368:	69bb      	ldr	r3, [r7, #24]
 802136a:	9300      	str	r3, [sp, #0]
 802136c:	460b      	mov	r3, r1
 802136e:	6a79      	ldr	r1, [r7, #36]	; 0x24
 8021370:	6ab8      	ldr	r0, [r7, #40]	; 0x28
 8021372:	f7ff fc8f 	bl	8020c94 <print_number>
 8021376:	62b8      	str	r0, [r7, #40]	; 0x28
 8021378:	687b      	ldr	r3, [r7, #4]
 802137a:	3301      	adds	r3, #1
 802137c:	607b      	str	r3, [r7, #4]
 802137e:	687b      	ldr	r3, [r7, #4]
 8021380:	781b      	ldrb	r3, [r3, #0]
 8021382:	2b00      	cmp	r3, #0
 8021384:	f47f ad8e 	bne.w	8020ea4 <rt_vsnprintf+0x34>
 8021388:	68bb      	ldr	r3, [r7, #8]
 802138a:	2b00      	cmp	r3, #0
 802138c:	d00b      	beq.n	80213a6 <rt_vsnprintf+0x536>
 802138e:	6aba      	ldr	r2, [r7, #40]	; 0x28
 8021390:	6a7b      	ldr	r3, [r7, #36]	; 0x24
 8021392:	429a      	cmp	r2, r3
 8021394:	d203      	bcs.n	802139e <rt_vsnprintf+0x52e>
 8021396:	6abb      	ldr	r3, [r7, #40]	; 0x28
 8021398:	2200      	movs	r2, #0
 802139a:	701a      	strb	r2, [r3, #0]
 802139c:	e003      	b.n	80213a6 <rt_vsnprintf+0x536>
 802139e:	6a7b      	ldr	r3, [r7, #36]	; 0x24
 80213a0:	3b01      	subs	r3, #1
 80213a2:	2200      	movs	r2, #0
 80213a4:	701a      	strb	r2, [r3, #0]
 80213a6:	6aba      	ldr	r2, [r7, #40]	; 0x28
 80213a8:	68fb      	ldr	r3, [r7, #12]
 80213aa:	1ad3      	subs	r3, r2, r3
 80213ac:	4618      	mov	r0, r3
 80213ae:	3738      	adds	r7, #56	; 0x38
 80213b0:	46bd      	mov	sp, r7
 80213b2:	bd80      	pop	{r7, pc}
 80213b4:	08024ad8 	stmdaeq	r2, {r3, r4, r6, r7, r9, fp, lr}

080213b8 <rt_kprintf>:
 80213b8:	b40f      	push	{r0, r1, r2, r3}
 80213ba:	b580      	push	{r7, lr}
 80213bc:	b082      	sub	sp, #8
 80213be:	af00      	add	r7, sp, #0
 80213c0:	f107 0314 	add.w	r3, r7, #20
 80213c4:	603b      	str	r3, [r7, #0]
 80213c6:	683b      	ldr	r3, [r7, #0]
 80213c8:	693a      	ldr	r2, [r7, #16]
 80213ca:	21ff      	movs	r1, #255	; 0xff
 80213cc:	4809      	ldr	r0, [pc, #36]	; (80213f4 <rt_kprintf+0x3c>)
 80213ce:	f7ff fd4f 	bl	8020e70 <rt_vsnprintf>
 80213d2:	4603      	mov	r3, r0
 80213d4:	607b      	str	r3, [r7, #4]
 80213d6:	687b      	ldr	r3, [r7, #4]
 80213d8:	2bff      	cmp	r3, #255	; 0xff
 80213da:	d901      	bls.n	80213e0 <rt_kprintf+0x28>
 80213dc:	23ff      	movs	r3, #255	; 0xff
 80213de:	607b      	str	r3, [r7, #4]
 80213e0:	4804      	ldr	r0, [pc, #16]	; (80213f4 <rt_kprintf+0x3c>)
 80213e2:	f003 f8d3 	bl	802458c <rt_hw_console_output>
 80213e6:	bf00      	nop
 80213e8:	3708      	adds	r7, #8
 80213ea:	46bd      	mov	sp, r7
 80213ec:	e8bd 4080 	ldmia.w	sp!, {r7, lr}
 80213f0:	b004      	add	sp, #16
 80213f2:	4770      	bx	lr
 80213f4:	200013a0 	andcs	r1, r0, r0, lsr #7

080213f8 <__rt_ffs>:
 80213f8:	b480      	push	{r7}
 80213fa:	b083      	sub	sp, #12
 80213fc:	af00      	add	r7, sp, #0
 80213fe:	6078      	str	r0, [r7, #4]
 8021400:	687b      	ldr	r3, [r7, #4]
 8021402:	2b00      	cmp	r3, #0
 8021404:	d101      	bne.n	802140a <__rt_ffs+0x12>
 8021406:	2300      	movs	r3, #0
 8021408:	e026      	b.n	8021458 <__rt_ffs+0x60>
 802140a:	687b      	ldr	r3, [r7, #4]
 802140c:	b2db      	uxtb	r3, r3
 802140e:	2b00      	cmp	r3, #0
 8021410:	d005      	beq.n	802141e <__rt_ffs+0x26>
 8021412:	687b      	ldr	r3, [r7, #4]
 8021414:	b2db      	uxtb	r3, r3
 8021416:	4a13      	ldr	r2, [pc, #76]	; (8021464 <__rt_ffs+0x6c>)
 8021418:	5cd3      	ldrb	r3, [r2, r3]
 802141a:	3301      	adds	r3, #1
 802141c:	e01c      	b.n	8021458 <__rt_ffs+0x60>
 802141e:	687b      	ldr	r3, [r7, #4]
 8021420:	f403 437f 	and.w	r3, r3, #65280	; 0xff00
 8021424:	2b00      	cmp	r3, #0
 8021426:	d006      	beq.n	8021436 <__rt_ffs+0x3e>
 8021428:	687b      	ldr	r3, [r7, #4]
 802142a:	121b      	asrs	r3, r3, #8
 802142c:	b2db      	uxtb	r3, r3
 802142e:	4a0d      	ldr	r2, [pc, #52]	; (8021464 <__rt_ffs+0x6c>)
 8021430:	5cd3      	ldrb	r3, [r2, r3]
 8021432:	3309      	adds	r3, #9
 8021434:	e010      	b.n	8021458 <__rt_ffs+0x60>
 8021436:	687b      	ldr	r3, [r7, #4]
 8021438:	f403 037f 	and.w	r3, r3, #16711680	; 0xff0000
 802143c:	2b00      	cmp	r3, #0
 802143e:	d006      	beq.n	802144e <__rt_ffs+0x56>
 8021440:	687b      	ldr	r3, [r7, #4]
 8021442:	141b      	asrs	r3, r3, #16
 8021444:	b2db      	uxtb	r3, r3
 8021446:	4a07      	ldr	r2, [pc, #28]	; (8021464 <__rt_ffs+0x6c>)
 8021448:	5cd3      	ldrb	r3, [r2, r3]
 802144a:	3311      	adds	r3, #17
 802144c:	e004      	b.n	8021458 <__rt_ffs+0x60>
 802144e:	687b      	ldr	r3, [r7, #4]
 8021450:	0e1b      	lsrs	r3, r3, #24
 8021452:	4a04      	ldr	r2, [pc, #16]	; (8021464 <__rt_ffs+0x6c>)
 8021454:	5cd3      	ldrb	r3, [r2, r3]
 8021456:	3319      	adds	r3, #25
 8021458:	4618      	mov	r0, r3
 802145a:	370c      	adds	r7, #12
 802145c:	46bd      	mov	sp, r7
 802145e:	f85d 7b04 	ldr.w	r7, [sp], #4
 8021462:	4770      	bx	lr
 8021464:	08025218 	stmdaeq	r2, {r3, r4, r9, ip, lr}

08021468 <rt_assert_handler>:
 8021468:	b580      	push	{r7, lr}
 802146a:	b086      	sub	sp, #24
 802146c:	af00      	add	r7, sp, #0
 802146e:	60f8      	str	r0, [r7, #12]
 8021470:	60b9      	str	r1, [r7, #8]
 8021472:	607a      	str	r2, [r7, #4]
 8021474:	2300      	movs	r3, #0
 8021476:	75fb      	strb	r3, [r7, #23]
 8021478:	4b0c      	ldr	r3, [pc, #48]	; (80214ac <rt_assert_handler+0x44>)
 802147a:	681b      	ldr	r3, [r3, #0]
 802147c:	2b00      	cmp	r3, #0
 802147e:	d10b      	bne.n	8021498 <rt_assert_handler+0x30>
 8021480:	687b      	ldr	r3, [r7, #4]
 8021482:	68ba      	ldr	r2, [r7, #8]
 8021484:	68f9      	ldr	r1, [r7, #12]
 8021486:	480a      	ldr	r0, [pc, #40]	; (80214b0 <rt_assert_handler+0x48>)
 8021488:	f7ff ff96 	bl	80213b8 <rt_kprintf>
 802148c:	bf00      	nop
 802148e:	7dfb      	ldrb	r3, [r7, #23]
 8021490:	b2db      	uxtb	r3, r3
 8021492:	2b00      	cmp	r3, #0
 8021494:	d0fb      	beq.n	802148e <rt_assert_handler+0x26>
 8021496:	e005      	b.n	80214a4 <rt_assert_handler+0x3c>
 8021498:	4b04      	ldr	r3, [pc, #16]	; (80214ac <rt_assert_handler+0x44>)
 802149a:	681b      	ldr	r3, [r3, #0]
 802149c:	687a      	ldr	r2, [r7, #4]
 802149e:	68b9      	ldr	r1, [r7, #8]
 80214a0:	68f8      	ldr	r0, [r7, #12]
 80214a2:	4798      	blx	r3
 80214a4:	bf00      	nop
 80214a6:	3718      	adds	r7, #24
 80214a8:	46bd      	mov	sp, r7
 80214aa:	bd80      	pop	{r7, pc}
 80214ac:	20001574 	andcs	r1, r0, r4, ror r5
 80214b0:	08024ae0 	stmdaeq	r2, {r5, r6, r7, r9, fp, lr}

080214b4 <rt_list_insert_after>:
 80214b4:	b480      	push	{r7}
 80214b6:	b083      	sub	sp, #12
 80214b8:	af00      	add	r7, sp, #0
 80214ba:	6078      	str	r0, [r7, #4]
 80214bc:	6039      	str	r1, [r7, #0]
 80214be:	687b      	ldr	r3, [r7, #4]
 80214c0:	681b      	ldr	r3, [r3, #0]
 80214c2:	683a      	ldr	r2, [r7, #0]
 80214c4:	605a      	str	r2, [r3, #4]
 80214c6:	687b      	ldr	r3, [r7, #4]
 80214c8:	681a      	ldr	r2, [r3, #0]
 80214ca:	683b      	ldr	r3, [r7, #0]
 80214cc:	601a      	str	r2, [r3, #0]
 80214ce:	687b      	ldr	r3, [r7, #4]
 80214d0:	683a      	ldr	r2, [r7, #0]
 80214d2:	601a      	str	r2, [r3, #0]
 80214d4:	683b      	ldr	r3, [r7, #0]
 80214d6:	687a      	ldr	r2, [r7, #4]
 80214d8:	605a      	str	r2, [r3, #4]
 80214da:	bf00      	nop
 80214dc:	370c      	adds	r7, #12
 80214de:	46bd      	mov	sp, r7
 80214e0:	f85d 7b04 	ldr.w	r7, [sp], #4
 80214e4:	4770      	bx	lr
 80214e6:	bf00      	nop

080214e8 <rt_list_remove>:
 80214e8:	b480      	push	{r7}
 80214ea:	b083      	sub	sp, #12
 80214ec:	af00      	add	r7, sp, #0
 80214ee:	6078      	str	r0, [r7, #4]
 80214f0:	687b      	ldr	r3, [r7, #4]
 80214f2:	681b      	ldr	r3, [r3, #0]
 80214f4:	687a      	ldr	r2, [r7, #4]
 80214f6:	6852      	ldr	r2, [r2, #4]
 80214f8:	605a      	str	r2, [r3, #4]
 80214fa:	687b      	ldr	r3, [r7, #4]
 80214fc:	685b      	ldr	r3, [r3, #4]
 80214fe:	687a      	ldr	r2, [r7, #4]
 8021500:	6812      	ldr	r2, [r2, #0]
 8021502:	601a      	str	r2, [r3, #0]
 8021504:	687b      	ldr	r3, [r7, #4]
 8021506:	687a      	ldr	r2, [r7, #4]
 8021508:	605a      	str	r2, [r3, #4]
 802150a:	687b      	ldr	r3, [r7, #4]
 802150c:	685a      	ldr	r2, [r3, #4]
 802150e:	687b      	ldr	r3, [r7, #4]
 8021510:	601a      	str	r2, [r3, #0]
 8021512:	bf00      	nop
 8021514:	370c      	adds	r7, #12
 8021516:	46bd      	mov	sp, r7
 8021518:	f85d 7b04 	ldr.w	r7, [sp], #4
 802151c:	4770      	bx	lr
 802151e:	bf00      	nop

08021520 <rt_object_get_information>:
 8021520:	b480      	push	{r7}
 8021522:	b085      	sub	sp, #20
 8021524:	af00      	add	r7, sp, #0
 8021526:	4603      	mov	r3, r0
 8021528:	71fb      	strb	r3, [r7, #7]
 802152a:	2300      	movs	r3, #0
 802152c:	60fb      	str	r3, [r7, #12]
 802152e:	e00f      	b.n	8021550 <rt_object_get_information+0x30>
 8021530:	4a0c      	ldr	r2, [pc, #48]	; (8021564 <rt_object_get_information+0x44>)
 8021532:	68fb      	ldr	r3, [r7, #12]
 8021534:	011b      	lsls	r3, r3, #4
 8021536:	4413      	add	r3, r2
 8021538:	781b      	ldrb	r3, [r3, #0]
 802153a:	79fa      	ldrb	r2, [r7, #7]
 802153c:	429a      	cmp	r2, r3
 802153e:	d104      	bne.n	802154a <rt_object_get_information+0x2a>
 8021540:	68fb      	ldr	r3, [r7, #12]
 8021542:	011b      	lsls	r3, r3, #4
 8021544:	4a07      	ldr	r2, [pc, #28]	; (8021564 <rt_object_get_information+0x44>)
 8021546:	4413      	add	r3, r2
 8021548:	e006      	b.n	8021558 <rt_object_get_information+0x38>
 802154a:	68fb      	ldr	r3, [r7, #12]
 802154c:	3301      	adds	r3, #1
 802154e:	60fb      	str	r3, [r7, #12]
 8021550:	68fb      	ldr	r3, [r7, #12]
 8021552:	2b04      	cmp	r3, #4
 8021554:	ddec      	ble.n	8021530 <rt_object_get_information+0x10>
 8021556:	2300      	movs	r3, #0
 8021558:	4618      	mov	r0, r3
 802155a:	3714      	adds	r7, #20
 802155c:	46bd      	mov	sp, r7
 802155e:	f85d 7b04 	ldr.w	r7, [sp], #4
 8021562:	4770      	bx	lr
 8021564:	20000000 	andcs	r0, r0, r0

08021568 <rt_object_init>:
 8021568:	b590      	push	{r4, r7, lr}
 802156a:	b089      	sub	sp, #36	; 0x24
 802156c:	af00      	add	r7, sp, #0
 802156e:	60f8      	str	r0, [r7, #12]
 8021570:	460b      	mov	r3, r1
 8021572:	607a      	str	r2, [r7, #4]
 8021574:	72fb      	strb	r3, [r7, #11]
 8021576:	2300      	movs	r3, #0
 8021578:	61fb      	str	r3, [r7, #28]
 802157a:	7afb      	ldrb	r3, [r7, #11]
 802157c:	4618      	mov	r0, r3
 802157e:	f7ff ffcf 	bl	8021520 <rt_object_get_information>
 8021582:	61b8      	str	r0, [r7, #24]
 8021584:	69bb      	ldr	r3, [r7, #24]
 8021586:	2b00      	cmp	r3, #0
 8021588:	d104      	bne.n	8021594 <rt_object_init+0x2c>
 802158a:	22fb      	movs	r2, #251	; 0xfb
 802158c:	491f      	ldr	r1, [pc, #124]	; (802160c <rt_object_init+0xa4>)
 802158e:	4820      	ldr	r0, [pc, #128]	; (8021610 <rt_object_init+0xa8>)
 8021590:	f7ff ff6a 	bl	8021468 <rt_assert_handler>
 8021594:	f000 fa9a 	bl	8021acc <rt_enter_critical>
 8021598:	69bb      	ldr	r3, [r7, #24]
 802159a:	685b      	ldr	r3, [r3, #4]
 802159c:	61fb      	str	r3, [r7, #28]
 802159e:	e00f      	b.n	80215c0 <rt_object_init+0x58>
 80215a0:	69fb      	ldr	r3, [r7, #28]
 80215a2:	3b0c      	subs	r3, #12
 80215a4:	617b      	str	r3, [r7, #20]
 80215a6:	697a      	ldr	r2, [r7, #20]
 80215a8:	68fb      	ldr	r3, [r7, #12]
 80215aa:	429a      	cmp	r2, r3
 80215ac:	d105      	bne.n	80215ba <rt_object_init+0x52>
 80215ae:	f240 1209 	movw	r2, #265	; 0x109
 80215b2:	4916      	ldr	r1, [pc, #88]	; (802160c <rt_object_init+0xa4>)
 80215b4:	4817      	ldr	r0, [pc, #92]	; (8021614 <rt_object_init+0xac>)
 80215b6:	f7ff ff57 	bl	8021468 <rt_assert_handler>
 80215ba:	69fb      	ldr	r3, [r7, #28]
 80215bc:	681b      	ldr	r3, [r3, #0]
 80215be:	61fb      	str	r3, [r7, #28]
 80215c0:	69bb      	ldr	r3, [r7, #24]
 80215c2:	1d1a      	adds	r2, r3, #4
 80215c4:	69fb      	ldr	r3, [r7, #28]
 80215c6:	429a      	cmp	r2, r3
 80215c8:	d1ea      	bne.n	80215a0 <rt_object_init+0x38>
 80215ca:	f000 fa95 	bl	8021af8 <rt_exit_critical>
 80215ce:	7afb      	ldrb	r3, [r7, #11]
 80215d0:	f063 037f 	orn	r3, r3, #127	; 0x7f
 80215d4:	b2da      	uxtb	r2, r3
 80215d6:	68fb      	ldr	r3, [r7, #12]
 80215d8:	721a      	strb	r2, [r3, #8]
 80215da:	68fb      	ldr	r3, [r7, #12]
 80215dc:	2208      	movs	r2, #8
 80215de:	6879      	ldr	r1, [r7, #4]
 80215e0:	4618      	mov	r0, r3
 80215e2:	f7ff fa97 	bl	8020b14 <rt_strncpy>
 80215e6:	f7fe fdfd 	bl	80201e4 <rt_hw_interrupt_disable>
 80215ea:	4604      	mov	r4, r0
 80215ec:	69bb      	ldr	r3, [r7, #24]
 80215ee:	1d1a      	adds	r2, r3, #4
 80215f0:	68fb      	ldr	r3, [r7, #12]
 80215f2:	330c      	adds	r3, #12
 80215f4:	4619      	mov	r1, r3
 80215f6:	4610      	mov	r0, r2
 80215f8:	f7ff ff5c 	bl	80214b4 <rt_list_insert_after>
 80215fc:	4620      	mov	r0, r4
 80215fe:	f7fe fdf5 	bl	80201ec <rt_hw_interrupt_enable>
 8021602:	bf00      	nop
 8021604:	3724      	adds	r7, #36	; 0x24
 8021606:	46bd      	mov	sp, r7
 8021608:	bd90      	pop	{r4, r7, pc}
 802160a:	bf00      	nop
 802160c:	08025340 	stmdaeq	r2, {r6, r8, r9, ip, lr}
 8021610:	08024b18 	stmdaeq	r2, {r3, r4, r8, r9, fp, lr}
 8021614:	08024b30 	stmdaeq	r2, {r4, r5, r8, r9, fp, lr}

08021618 <rt_object_detach>:
 8021618:	b590      	push	{r4, r7, lr}
 802161a:	b083      	sub	sp, #12
 802161c:	af00      	add	r7, sp, #0
 802161e:	6078      	str	r0, [r7, #4]
 8021620:	687b      	ldr	r3, [r7, #4]
 8021622:	2b00      	cmp	r3, #0
 8021624:	d105      	bne.n	8021632 <rt_object_detach+0x1a>
 8021626:	f240 1235 	movw	r2, #309	; 0x135
 802162a:	490b      	ldr	r1, [pc, #44]	; (8021658 <rt_object_detach+0x40>)
 802162c:	480b      	ldr	r0, [pc, #44]	; (802165c <rt_object_detach+0x44>)
 802162e:	f7ff ff1b 	bl	8021468 <rt_assert_handler>
 8021632:	687b      	ldr	r3, [r7, #4]
 8021634:	2200      	movs	r2, #0
 8021636:	721a      	strb	r2, [r3, #8]
 8021638:	f7fe fdd4 	bl	80201e4 <rt_hw_interrupt_disable>
 802163c:	4604      	mov	r4, r0
 802163e:	687b      	ldr	r3, [r7, #4]
 8021640:	330c      	adds	r3, #12
 8021642:	4618      	mov	r0, r3
 8021644:	f7ff ff50 	bl	80214e8 <rt_list_remove>
 8021648:	4620      	mov	r0, r4
 802164a:	f7fe fdcf 	bl	80201ec <rt_hw_interrupt_enable>
 802164e:	bf00      	nop
 8021650:	370c      	adds	r7, #12
 8021652:	46bd      	mov	sp, r7
 8021654:	bd90      	pop	{r4, r7, pc}
 8021656:	bf00      	nop
 8021658:	08025350 	stmdaeq	r2, {r4, r6, r8, r9, ip, lr}
 802165c:	08024b40 	stmdaeq	r2, {r6, r8, r9, fp, lr}

08021660 <rt_object_is_systemobject>:
 8021660:	b580      	push	{r7, lr}
 8021662:	b082      	sub	sp, #8
 8021664:	af00      	add	r7, sp, #0
 8021666:	6078      	str	r0, [r7, #4]
 8021668:	687b      	ldr	r3, [r7, #4]
 802166a:	2b00      	cmp	r3, #0
 802166c:	d105      	bne.n	802167a <rt_object_is_systemobject+0x1a>
 802166e:	f44f 72dc 	mov.w	r2, #440	; 0x1b8
 8021672:	4908      	ldr	r1, [pc, #32]	; (8021694 <rt_object_is_systemobject+0x34>)
 8021674:	4808      	ldr	r0, [pc, #32]	; (8021698 <rt_object_is_systemobject+0x38>)
 8021676:	f7ff fef7 	bl	8021468 <rt_assert_handler>
 802167a:	687b      	ldr	r3, [r7, #4]
 802167c:	7a1b      	ldrb	r3, [r3, #8]
 802167e:	b25b      	sxtb	r3, r3
 8021680:	2b00      	cmp	r3, #0
 8021682:	da01      	bge.n	8021688 <rt_object_is_systemobject+0x28>
 8021684:	2301      	movs	r3, #1
 8021686:	e000      	b.n	802168a <rt_object_is_systemobject+0x2a>
 8021688:	2300      	movs	r3, #0
 802168a:	4618      	mov	r0, r3
 802168c:	3708      	adds	r7, #8
 802168e:	46bd      	mov	sp, r7
 8021690:	bd80      	pop	{r7, pc}
 8021692:	bf00      	nop
 8021694:	08025364 	stmdaeq	r2, {r2, r5, r6, r8, r9, ip, lr}
 8021698:	08024b40 	stmdaeq	r2, {r6, r8, r9, fp, lr}

0802169c <rt_object_get_type>:
 802169c:	b580      	push	{r7, lr}
 802169e:	b082      	sub	sp, #8
 80216a0:	af00      	add	r7, sp, #0
 80216a2:	6078      	str	r0, [r7, #4]
 80216a4:	687b      	ldr	r3, [r7, #4]
 80216a6:	2b00      	cmp	r3, #0
 80216a8:	d105      	bne.n	80216b6 <rt_object_get_type+0x1a>
 80216aa:	f240 12cb 	movw	r2, #459	; 0x1cb
 80216ae:	4906      	ldr	r1, [pc, #24]	; (80216c8 <rt_object_get_type+0x2c>)
 80216b0:	4806      	ldr	r0, [pc, #24]	; (80216cc <rt_object_get_type+0x30>)
 80216b2:	f7ff fed9 	bl	8021468 <rt_assert_handler>
 80216b6:	687b      	ldr	r3, [r7, #4]
 80216b8:	7a1b      	ldrb	r3, [r3, #8]
 80216ba:	f003 037f 	and.w	r3, r3, #127	; 0x7f
 80216be:	b2db      	uxtb	r3, r3
 80216c0:	4618      	mov	r0, r3
 80216c2:	3708      	adds	r7, #8
 80216c4:	46bd      	mov	sp, r7
 80216c6:	bd80      	pop	{r7, pc}
 80216c8:	08025380 	stmdaeq	r2, {r7, r8, r9, ip, lr}
 80216cc:	08024b40 	stmdaeq	r2, {r6, r8, r9, fp, lr}

080216d0 <rt_list_init>:
 80216d0:	b480      	push	{r7}
 80216d2:	b083      	sub	sp, #12
 80216d4:	af00      	add	r7, sp, #0
 80216d6:	6078      	str	r0, [r7, #4]
 80216d8:	687b      	ldr	r3, [r7, #4]
 80216da:	687a      	ldr	r2, [r7, #4]
 80216dc:	605a      	str	r2, [r3, #4]
 80216de:	687b      	ldr	r3, [r7, #4]
 80216e0:	685a      	ldr	r2, [r3, #4]
 80216e2:	687b      	ldr	r3, [r7, #4]
 80216e4:	601a      	str	r2, [r3, #0]
 80216e6:	bf00      	nop
 80216e8:	370c      	adds	r7, #12
 80216ea:	46bd      	mov	sp, r7
 80216ec:	f85d 7b04 	ldr.w	r7, [sp], #4
 80216f0:	4770      	bx	lr
 80216f2:	bf00      	nop

080216f4 <rt_list_insert_before>:
 80216f4:	b480      	push	{r7}
 80216f6:	b083      	sub	sp, #12
 80216f8:	af00      	add	r7, sp, #0
 80216fa:	6078      	str	r0, [r7, #4]
 80216fc:	6039      	str	r1, [r7, #0]
 80216fe:	687b      	ldr	r3, [r7, #4]
 8021700:	685b      	ldr	r3, [r3, #4]
 8021702:	683a      	ldr	r2, [r7, #0]
 8021704:	601a      	str	r2, [r3, #0]
 8021706:	687b      	ldr	r3, [r7, #4]
 8021708:	685a      	ldr	r2, [r3, #4]
 802170a:	683b      	ldr	r3, [r7, #0]
 802170c:	605a      	str	r2, [r3, #4]
 802170e:	687b      	ldr	r3, [r7, #4]
 8021710:	683a      	ldr	r2, [r7, #0]
 8021712:	605a      	str	r2, [r3, #4]
 8021714:	683b      	ldr	r3, [r7, #0]
 8021716:	687a      	ldr	r2, [r7, #4]
 8021718:	601a      	str	r2, [r3, #0]
 802171a:	bf00      	nop
 802171c:	370c      	adds	r7, #12
 802171e:	46bd      	mov	sp, r7
 8021720:	f85d 7b04 	ldr.w	r7, [sp], #4
 8021724:	4770      	bx	lr
 8021726:	bf00      	nop

08021728 <rt_list_remove>:
 8021728:	b480      	push	{r7}
 802172a:	b083      	sub	sp, #12
 802172c:	af00      	add	r7, sp, #0
 802172e:	6078      	str	r0, [r7, #4]
 8021730:	687b      	ldr	r3, [r7, #4]
 8021732:	681b      	ldr	r3, [r3, #0]
 8021734:	687a      	ldr	r2, [r7, #4]
 8021736:	6852      	ldr	r2, [r2, #4]
 8021738:	605a      	str	r2, [r3, #4]
 802173a:	687b      	ldr	r3, [r7, #4]
 802173c:	685b      	ldr	r3, [r3, #4]
 802173e:	687a      	ldr	r2, [r7, #4]
 8021740:	6812      	ldr	r2, [r2, #0]
 8021742:	601a      	str	r2, [r3, #0]
 8021744:	687b      	ldr	r3, [r7, #4]
 8021746:	687a      	ldr	r2, [r7, #4]
 8021748:	605a      	str	r2, [r3, #4]
 802174a:	687b      	ldr	r3, [r7, #4]
 802174c:	685a      	ldr	r2, [r3, #4]
 802174e:	687b      	ldr	r3, [r7, #4]
 8021750:	601a      	str	r2, [r3, #0]
 8021752:	bf00      	nop
 8021754:	370c      	adds	r7, #12
 8021756:	46bd      	mov	sp, r7
 8021758:	f85d 7b04 	ldr.w	r7, [sp], #4
 802175c:	4770      	bx	lr
 802175e:	bf00      	nop

08021760 <rt_list_isempty>:
 8021760:	b480      	push	{r7}
 8021762:	b083      	sub	sp, #12
 8021764:	af00      	add	r7, sp, #0
 8021766:	6078      	str	r0, [r7, #4]
 8021768:	687b      	ldr	r3, [r7, #4]
 802176a:	681a      	ldr	r2, [r3, #0]
 802176c:	687b      	ldr	r3, [r7, #4]
 802176e:	429a      	cmp	r2, r3
 8021770:	bf0c      	ite	eq
 8021772:	2301      	moveq	r3, #1
 8021774:	2300      	movne	r3, #0
 8021776:	b2db      	uxtb	r3, r3
 8021778:	4618      	mov	r0, r3
 802177a:	370c      	adds	r7, #12
 802177c:	46bd      	mov	sp, r7
 802177e:	f85d 7b04 	ldr.w	r7, [sp], #4
 8021782:	4770      	bx	lr

08021784 <_rt_scheduler_stack_check>:
 8021784:	b580      	push	{r7, lr}
 8021786:	b084      	sub	sp, #16
 8021788:	af00      	add	r7, sp, #0
 802178a:	6078      	str	r0, [r7, #4]
 802178c:	687b      	ldr	r3, [r7, #4]
 802178e:	2b00      	cmp	r3, #0
 8021790:	d104      	bne.n	802179c <_rt_scheduler_stack_check+0x18>
 8021792:	224b      	movs	r2, #75	; 0x4b
 8021794:	491c      	ldr	r1, [pc, #112]	; (8021808 <_rt_scheduler_stack_check+0x84>)
 8021796:	481d      	ldr	r0, [pc, #116]	; (802180c <_rt_scheduler_stack_check+0x88>)
 8021798:	f7ff fe66 	bl	8021468 <rt_assert_handler>
 802179c:	687b      	ldr	r3, [r7, #4]
 802179e:	6a9b      	ldr	r3, [r3, #40]	; 0x28
 80217a0:	781b      	ldrb	r3, [r3, #0]
 80217a2:	2b23      	cmp	r3, #35	; 0x23
 80217a4:	d111      	bne.n	80217ca <_rt_scheduler_stack_check+0x46>
 80217a6:	687b      	ldr	r3, [r7, #4]
 80217a8:	69db      	ldr	r3, [r3, #28]
 80217aa:	461a      	mov	r2, r3
 80217ac:	687b      	ldr	r3, [r7, #4]
 80217ae:	6a9b      	ldr	r3, [r3, #40]	; 0x28
 80217b0:	429a      	cmp	r2, r3
 80217b2:	d90a      	bls.n	80217ca <_rt_scheduler_stack_check+0x46>
 80217b4:	687b      	ldr	r3, [r7, #4]
 80217b6:	69db      	ldr	r3, [r3, #28]
 80217b8:	461a      	mov	r2, r3
 80217ba:	687b      	ldr	r3, [r7, #4]
 80217bc:	6a9b      	ldr	r3, [r3, #40]	; 0x28
 80217be:	4619      	mov	r1, r3
 80217c0:	687b      	ldr	r3, [r7, #4]
 80217c2:	6adb      	ldr	r3, [r3, #44]	; 0x2c
 80217c4:	440b      	add	r3, r1
 80217c6:	429a      	cmp	r2, r3
 80217c8:	d90c      	bls.n	80217e4 <_rt_scheduler_stack_check+0x60>
 80217ca:	687b      	ldr	r3, [r7, #4]
 80217cc:	4619      	mov	r1, r3
 80217ce:	4810      	ldr	r0, [pc, #64]	; (8021810 <_rt_scheduler_stack_check+0x8c>)
 80217d0:	f7ff fdf2 	bl	80213b8 <rt_kprintf>
 80217d4:	f7fe fd06 	bl	80201e4 <rt_hw_interrupt_disable>
 80217d8:	4603      	mov	r3, r0
 80217da:	60fb      	str	r3, [r7, #12]
 80217dc:	68fb      	ldr	r3, [r7, #12]
 80217de:	2b00      	cmp	r3, #0
 80217e0:	d1fc      	bne.n	80217dc <_rt_scheduler_stack_check+0x58>
 80217e2:	e00d      	b.n	8021800 <_rt_scheduler_stack_check+0x7c>
 80217e4:	687b      	ldr	r3, [r7, #4]
 80217e6:	69db      	ldr	r3, [r3, #28]
 80217e8:	461a      	mov	r2, r3
 80217ea:	687b      	ldr	r3, [r7, #4]
 80217ec:	6a9b      	ldr	r3, [r3, #40]	; 0x28
 80217ee:	3320      	adds	r3, #32
 80217f0:	429a      	cmp	r2, r3
 80217f2:	d805      	bhi.n	8021800 <_rt_scheduler_stack_check+0x7c>
 80217f4:	687b      	ldr	r3, [r7, #4]
 80217f6:	4619      	mov	r1, r3
 80217f8:	4806      	ldr	r0, [pc, #24]	; (8021814 <_rt_scheduler_stack_check+0x90>)
 80217fa:	f7ff fddd 	bl	80213b8 <rt_kprintf>
 80217fe:	e7ff      	b.n	8021800 <_rt_scheduler_stack_check+0x7c>
 8021800:	bf00      	nop
 8021802:	3710      	adds	r7, #16
 8021804:	46bd      	mov	sp, r7
 8021806:	bd80      	pop	{r7, pc}
 8021808:	08025394 	stmdaeq	r2, {r2, r4, r7, r8, r9, ip, lr}
 802180c:	08024b80 	stmdaeq	r2, {r7, r8, r9, fp, lr}
 8021810:	08024b94 	stmdaeq	r2, {r2, r4, r7, r8, r9, fp, lr}
 8021814:	08024bb0 	stmdaeq	r2, {r4, r5, r7, r8, r9, fp, lr}

08021818 <rt_system_scheduler_init>:
 8021818:	b598      	push	{r3, r4, r7, lr}
 802181a:	af00      	add	r7, sp, #0
 802181c:	4b0f      	ldr	r3, [pc, #60]	; (802185c <rt_system_scheduler_init+0x44>)
 802181e:	2200      	movs	r2, #0
 8021820:	801a      	strh	r2, [r3, #0]
 8021822:	2120      	movs	r1, #32
 8021824:	480e      	ldr	r0, [pc, #56]	; (8021860 <rt_system_scheduler_init+0x48>)
 8021826:	f7ff fdc7 	bl	80213b8 <rt_kprintf>
 802182a:	2400      	movs	r4, #0
 802182c:	e006      	b.n	802183c <rt_system_scheduler_init+0x24>
 802182e:	00e3      	lsls	r3, r4, #3
 8021830:	4a0c      	ldr	r2, [pc, #48]	; (8021864 <rt_system_scheduler_init+0x4c>)
 8021832:	4413      	add	r3, r2
 8021834:	4618      	mov	r0, r3
 8021836:	f7ff ff4b 	bl	80216d0 <rt_list_init>
 802183a:	3401      	adds	r4, #1
 802183c:	2c1f      	cmp	r4, #31
 802183e:	ddf6      	ble.n	802182e <rt_system_scheduler_init+0x16>
 8021840:	4b09      	ldr	r3, [pc, #36]	; (8021868 <rt_system_scheduler_init+0x50>)
 8021842:	221f      	movs	r2, #31
 8021844:	701a      	strb	r2, [r3, #0]
 8021846:	4b09      	ldr	r3, [pc, #36]	; (802186c <rt_system_scheduler_init+0x54>)
 8021848:	2200      	movs	r2, #0
 802184a:	601a      	str	r2, [r3, #0]
 802184c:	4b08      	ldr	r3, [pc, #32]	; (8021870 <rt_system_scheduler_init+0x58>)
 802184e:	2200      	movs	r2, #0
 8021850:	601a      	str	r2, [r3, #0]
 8021852:	4808      	ldr	r0, [pc, #32]	; (8021874 <rt_system_scheduler_init+0x5c>)
 8021854:	f7ff ff3c 	bl	80216d0 <rt_list_init>
 8021858:	bf00      	nop
 802185a:	bd98      	pop	{r3, r4, r7, pc}
 802185c:	200014a0 	andcs	r1, r0, r0, lsr #9
 8021860:	08024bec 	stmdaeq	r2, {r2, r3, r5, r6, r7, r8, r9, fp, lr}
 8021864:	20001578 	andcs	r1, r0, r8, ror r5
 8021868:	20001678 	andcs	r1, r0, r8, ror r6
 802186c:	2000167c 	andcs	r1, r0, ip, ror r6
 8021870:	20001680 	andcs	r1, r0, r0, lsl #13
 8021874:	20001684 	andcs	r1, r0, r4, lsl #13

08021878 <rt_system_scheduler_start>:
 8021878:	b598      	push	{r3, r4, r7, lr}
 802187a:	af00      	add	r7, sp, #0
 802187c:	4b0f      	ldr	r3, [pc, #60]	; (80218bc <rt_system_scheduler_start+0x44>)
 802187e:	681b      	ldr	r3, [r3, #0]
 8021880:	4618      	mov	r0, r3
 8021882:	f7ff fdb9 	bl	80213f8 <__rt_ffs>
 8021886:	4603      	mov	r3, r0
 8021888:	3b01      	subs	r3, #1
 802188a:	461c      	mov	r4, r3
 802188c:	4b0c      	ldr	r3, [pc, #48]	; (80218c0 <rt_system_scheduler_start+0x48>)
 802188e:	f853 3034 	ldr.w	r3, [r3, r4, lsl #3]
 8021892:	f1a3 0414 	sub.w	r4, r3, #20
 8021896:	4b0b      	ldr	r3, [pc, #44]	; (80218c4 <rt_system_scheduler_start+0x4c>)
 8021898:	601c      	str	r4, [r3, #0]
 802189a:	4b0a      	ldr	r3, [pc, #40]	; (80218c4 <rt_system_scheduler_start+0x4c>)
 802189c:	681b      	ldr	r3, [r3, #0]
 802189e:	4619      	mov	r1, r3
 80218a0:	4b08      	ldr	r3, [pc, #32]	; (80218c4 <rt_system_scheduler_start+0x4c>)
 80218a2:	681b      	ldr	r3, [r3, #0]
 80218a4:	69db      	ldr	r3, [r3, #28]
 80218a6:	461a      	mov	r2, r3
 80218a8:	4807      	ldr	r0, [pc, #28]	; (80218c8 <rt_system_scheduler_start+0x50>)
 80218aa:	f7ff fd85 	bl	80213b8 <rt_kprintf>
 80218ae:	f104 031c 	add.w	r3, r4, #28
 80218b2:	4618      	mov	r0, r3
 80218b4:	f7fe fce3 	bl	802027e <rt_hw_context_switch_to>
 80218b8:	bf00      	nop
 80218ba:	bd98      	pop	{r3, r4, r7, pc}
 80218bc:	20001680 	andcs	r1, r0, r0, lsl #13
 80218c0:	20001578 	andcs	r1, r0, r8, ror r5
 80218c4:	2000167c 	andcs	r1, r0, ip, ror r6
 80218c8:	08024c14 	stmdaeq	r2, {r2, r4, sl, fp, lr}

080218cc <rt_schedule>:
 80218cc:	b5b0      	push	{r4, r5, r7, lr}
 80218ce:	b08a      	sub	sp, #40	; 0x28
 80218d0:	af06      	add	r7, sp, #24
 80218d2:	f7fe fc87 	bl	80201e4 <rt_hw_interrupt_disable>
 80218d6:	60f8      	str	r0, [r7, #12]
 80218d8:	4b2e      	ldr	r3, [pc, #184]	; (8021994 <rt_schedule+0xc8>)
 80218da:	f9b3 3000 	ldrsh.w	r3, [r3]
 80218de:	2b00      	cmp	r3, #0
 80218e0:	d151      	bne.n	8021986 <rt_schedule+0xba>
 80218e2:	4b2d      	ldr	r3, [pc, #180]	; (8021998 <rt_schedule+0xcc>)
 80218e4:	681b      	ldr	r3, [r3, #0]
 80218e6:	4618      	mov	r0, r3
 80218e8:	f7ff fd86 	bl	80213f8 <__rt_ffs>
 80218ec:	4603      	mov	r3, r0
 80218ee:	3b01      	subs	r3, #1
 80218f0:	461c      	mov	r4, r3
 80218f2:	4b2a      	ldr	r3, [pc, #168]	; (802199c <rt_schedule+0xd0>)
 80218f4:	f853 3034 	ldr.w	r3, [r3, r4, lsl #3]
 80218f8:	3b14      	subs	r3, #20
 80218fa:	60bb      	str	r3, [r7, #8]
 80218fc:	4b28      	ldr	r3, [pc, #160]	; (80219a0 <rt_schedule+0xd4>)
 80218fe:	681b      	ldr	r3, [r3, #0]
 8021900:	68ba      	ldr	r2, [r7, #8]
 8021902:	429a      	cmp	r2, r3
 8021904:	d03f      	beq.n	8021986 <rt_schedule+0xba>
 8021906:	b2e2      	uxtb	r2, r4
 8021908:	4b26      	ldr	r3, [pc, #152]	; (80219a4 <rt_schedule+0xd8>)
 802190a:	701a      	strb	r2, [r3, #0]
 802190c:	4b24      	ldr	r3, [pc, #144]	; (80219a0 <rt_schedule+0xd4>)
 802190e:	681b      	ldr	r3, [r3, #0]
 8021910:	607b      	str	r3, [r7, #4]
 8021912:	4a23      	ldr	r2, [pc, #140]	; (80219a0 <rt_schedule+0xd4>)
 8021914:	68bb      	ldr	r3, [r7, #8]
 8021916:	6013      	str	r3, [r2, #0]
 8021918:	4b23      	ldr	r3, [pc, #140]	; (80219a8 <rt_schedule+0xdc>)
 802191a:	781b      	ldrb	r3, [r3, #0]
 802191c:	b2db      	uxtb	r3, r3
 802191e:	461d      	mov	r5, r3
 8021920:	68bb      	ldr	r3, [r7, #8]
 8021922:	68ba      	ldr	r2, [r7, #8]
 8021924:	69d2      	ldr	r2, [r2, #28]
 8021926:	6879      	ldr	r1, [r7, #4]
 8021928:	6878      	ldr	r0, [r7, #4]
 802192a:	69c0      	ldr	r0, [r0, #28]
 802192c:	9004      	str	r0, [sp, #16]
 802192e:	9103      	str	r1, [sp, #12]
 8021930:	2108      	movs	r1, #8
 8021932:	9102      	str	r1, [sp, #8]
 8021934:	9201      	str	r2, [sp, #4]
 8021936:	9300      	str	r3, [sp, #0]
 8021938:	2308      	movs	r3, #8
 802193a:	4622      	mov	r2, r4
 802193c:	4629      	mov	r1, r5
 802193e:	481b      	ldr	r0, [pc, #108]	; (80219ac <rt_schedule+0xe0>)
 8021940:	f7ff fd3a 	bl	80213b8 <rt_kprintf>
 8021944:	68b8      	ldr	r0, [r7, #8]
 8021946:	f7ff ff1d 	bl	8021784 <_rt_scheduler_stack_check>
 802194a:	4b17      	ldr	r3, [pc, #92]	; (80219a8 <rt_schedule+0xdc>)
 802194c:	781b      	ldrb	r3, [r3, #0]
 802194e:	b2db      	uxtb	r3, r3
 8021950:	2b00      	cmp	r3, #0
 8021952:	d10c      	bne.n	802196e <rt_schedule+0xa2>
 8021954:	687b      	ldr	r3, [r7, #4]
 8021956:	331c      	adds	r3, #28
 8021958:	461a      	mov	r2, r3
 802195a:	68bb      	ldr	r3, [r7, #8]
 802195c:	331c      	adds	r3, #28
 802195e:	4619      	mov	r1, r3
 8021960:	4610      	mov	r0, r2
 8021962:	f7fe fc46 	bl	80201f2 <rt_hw_context_switch>
 8021966:	68f8      	ldr	r0, [r7, #12]
 8021968:	f7fe fc40 	bl	80201ec <rt_hw_interrupt_enable>
 802196c:	e00e      	b.n	802198c <rt_schedule+0xc0>
 802196e:	4810      	ldr	r0, [pc, #64]	; (80219b0 <rt_schedule+0xe4>)
 8021970:	f7ff fd22 	bl	80213b8 <rt_kprintf>
 8021974:	687b      	ldr	r3, [r7, #4]
 8021976:	331c      	adds	r3, #28
 8021978:	461a      	mov	r2, r3
 802197a:	68bb      	ldr	r3, [r7, #8]
 802197c:	331c      	adds	r3, #28
 802197e:	4619      	mov	r1, r3
 8021980:	4610      	mov	r0, r2
 8021982:	f7fe fc36 	bl	80201f2 <rt_hw_context_switch>
 8021986:	68f8      	ldr	r0, [r7, #12]
 8021988:	f7fe fc30 	bl	80201ec <rt_hw_interrupt_enable>
 802198c:	3710      	adds	r7, #16
 802198e:	46bd      	mov	sp, r7
 8021990:	bdb0      	pop	{r4, r5, r7, pc}
 8021992:	bf00      	nop
 8021994:	200014a0 	andcs	r1, r0, r0, lsr #9
 8021998:	20001680 	andcs	r1, r0, r0, lsl #13
 802199c:	20001578 	andcs	r1, r0, r8, ror r5
 80219a0:	2000167c 	andcs	r1, r0, ip, ror r6
 80219a4:	20001678 	andcs	r1, r0, r8, ror r6
 80219a8:	20001570 	andcs	r1, r0, r0, ror r5
 80219ac:	08024c3c 	stmdaeq	r2, {r2, r3, r4, r5, sl, fp, lr}
 80219b0:	08024c88 	stmdaeq	r2, {r3, r7, sl, fp, lr}

080219b4 <rt_schedule_insert_thread>:
 80219b4:	b590      	push	{r4, r7, lr}
 80219b6:	b083      	sub	sp, #12
 80219b8:	af00      	add	r7, sp, #0
 80219ba:	6078      	str	r0, [r7, #4]
 80219bc:	687b      	ldr	r3, [r7, #4]
 80219be:	2b00      	cmp	r3, #0
 80219c0:	d105      	bne.n	80219ce <rt_schedule_insert_thread+0x1a>
 80219c2:	f240 1223 	movw	r2, #291	; 0x123
 80219c6:	491b      	ldr	r1, [pc, #108]	; (8021a34 <rt_schedule_insert_thread+0x80>)
 80219c8:	481b      	ldr	r0, [pc, #108]	; (8021a38 <rt_schedule_insert_thread+0x84>)
 80219ca:	f7ff fd4d 	bl	8021468 <rt_assert_handler>
 80219ce:	f7fe fc09 	bl	80201e4 <rt_hw_interrupt_disable>
 80219d2:	4604      	mov	r4, r0
 80219d4:	687b      	ldr	r3, [r7, #4]
 80219d6:	f893 3034 	ldrb.w	r3, [r3, #52]	; 0x34
 80219da:	b25b      	sxtb	r3, r3
 80219dc:	f023 030f 	bic.w	r3, r3, #15
 80219e0:	b25b      	sxtb	r3, r3
 80219e2:	f043 0301 	orr.w	r3, r3, #1
 80219e6:	b25b      	sxtb	r3, r3
 80219e8:	b2da      	uxtb	r2, r3
 80219ea:	687b      	ldr	r3, [r7, #4]
 80219ec:	f883 2034 	strb.w	r2, [r3, #52]	; 0x34
 80219f0:	687b      	ldr	r3, [r7, #4]
 80219f2:	f893 3035 	ldrb.w	r3, [r3, #53]	; 0x35
 80219f6:	00db      	lsls	r3, r3, #3
 80219f8:	4a10      	ldr	r2, [pc, #64]	; (8021a3c <rt_schedule_insert_thread+0x88>)
 80219fa:	441a      	add	r2, r3
 80219fc:	687b      	ldr	r3, [r7, #4]
 80219fe:	3314      	adds	r3, #20
 8021a00:	4619      	mov	r1, r3
 8021a02:	4610      	mov	r0, r2
 8021a04:	f7ff fe76 	bl	80216f4 <rt_list_insert_before>
 8021a08:	687a      	ldr	r2, [r7, #4]
 8021a0a:	687b      	ldr	r3, [r7, #4]
 8021a0c:	f893 3035 	ldrb.w	r3, [r3, #53]	; 0x35
 8021a10:	2108      	movs	r1, #8
 8021a12:	480b      	ldr	r0, [pc, #44]	; (8021a40 <rt_schedule_insert_thread+0x8c>)
 8021a14:	f7ff fcd0 	bl	80213b8 <rt_kprintf>
 8021a18:	687b      	ldr	r3, [r7, #4]
 8021a1a:	6b9a      	ldr	r2, [r3, #56]	; 0x38
 8021a1c:	4b09      	ldr	r3, [pc, #36]	; (8021a44 <rt_schedule_insert_thread+0x90>)
 8021a1e:	681b      	ldr	r3, [r3, #0]
 8021a20:	4313      	orrs	r3, r2
 8021a22:	4a08      	ldr	r2, [pc, #32]	; (8021a44 <rt_schedule_insert_thread+0x90>)
 8021a24:	6013      	str	r3, [r2, #0]
 8021a26:	4620      	mov	r0, r4
 8021a28:	f7fe fbe0 	bl	80201ec <rt_hw_interrupt_enable>
 8021a2c:	bf00      	nop
 8021a2e:	370c      	adds	r7, #12
 8021a30:	46bd      	mov	sp, r7
 8021a32:	bd90      	pop	{r4, r7, pc}
 8021a34:	080253b0 	stmdaeq	r2, {r4, r5, r7, r8, r9, ip, lr}
 8021a38:	08024b80 	stmdaeq	r2, {r7, r8, r9, fp, lr}
 8021a3c:	20001578 	andcs	r1, r0, r8, ror r5
 8021a40:	08024ca0 	stmdaeq	r2, {r5, r7, sl, fp, lr}
 8021a44:	20001680 	andcs	r1, r0, r0, lsl #13

08021a48 <rt_schedule_remove_thread>:
 8021a48:	b590      	push	{r4, r7, lr}
 8021a4a:	b083      	sub	sp, #12
 8021a4c:	af00      	add	r7, sp, #0
 8021a4e:	6078      	str	r0, [r7, #4]
 8021a50:	687b      	ldr	r3, [r7, #4]
 8021a52:	2b00      	cmp	r3, #0
 8021a54:	d105      	bne.n	8021a62 <rt_schedule_remove_thread+0x1a>
 8021a56:	f240 1251 	movw	r2, #337	; 0x151
 8021a5a:	4917      	ldr	r1, [pc, #92]	; (8021ab8 <rt_schedule_remove_thread+0x70>)
 8021a5c:	4817      	ldr	r0, [pc, #92]	; (8021abc <rt_schedule_remove_thread+0x74>)
 8021a5e:	f7ff fd03 	bl	8021468 <rt_assert_handler>
 8021a62:	f7fe fbbf 	bl	80201e4 <rt_hw_interrupt_disable>
 8021a66:	4604      	mov	r4, r0
 8021a68:	687a      	ldr	r2, [r7, #4]
 8021a6a:	687b      	ldr	r3, [r7, #4]
 8021a6c:	f893 3035 	ldrb.w	r3, [r3, #53]	; 0x35
 8021a70:	2108      	movs	r1, #8
 8021a72:	4813      	ldr	r0, [pc, #76]	; (8021ac0 <rt_schedule_remove_thread+0x78>)
 8021a74:	f7ff fca0 	bl	80213b8 <rt_kprintf>
 8021a78:	687b      	ldr	r3, [r7, #4]
 8021a7a:	3314      	adds	r3, #20
 8021a7c:	4618      	mov	r0, r3
 8021a7e:	f7ff fe53 	bl	8021728 <rt_list_remove>
 8021a82:	687b      	ldr	r3, [r7, #4]
 8021a84:	f893 3035 	ldrb.w	r3, [r3, #53]	; 0x35
 8021a88:	00db      	lsls	r3, r3, #3
 8021a8a:	4a0e      	ldr	r2, [pc, #56]	; (8021ac4 <rt_schedule_remove_thread+0x7c>)
 8021a8c:	4413      	add	r3, r2
 8021a8e:	4618      	mov	r0, r3
 8021a90:	f7ff fe66 	bl	8021760 <rt_list_isempty>
 8021a94:	4603      	mov	r3, r0
 8021a96:	2b00      	cmp	r3, #0
 8021a98:	d007      	beq.n	8021aaa <rt_schedule_remove_thread+0x62>
 8021a9a:	687b      	ldr	r3, [r7, #4]
 8021a9c:	6b9b      	ldr	r3, [r3, #56]	; 0x38
 8021a9e:	43da      	mvns	r2, r3
 8021aa0:	4b09      	ldr	r3, [pc, #36]	; (8021ac8 <rt_schedule_remove_thread+0x80>)
 8021aa2:	681b      	ldr	r3, [r3, #0]
 8021aa4:	4013      	ands	r3, r2
 8021aa6:	4a08      	ldr	r2, [pc, #32]	; (8021ac8 <rt_schedule_remove_thread+0x80>)
 8021aa8:	6013      	str	r3, [r2, #0]
 8021aaa:	4620      	mov	r0, r4
 8021aac:	f7fe fb9e 	bl	80201ec <rt_hw_interrupt_enable>
 8021ab0:	bf00      	nop
 8021ab2:	370c      	adds	r7, #12
 8021ab4:	46bd      	mov	sp, r7
 8021ab6:	bd90      	pop	{r4, r7, pc}
 8021ab8:	080253cc 	stmdaeq	r2, {r2, r3, r6, r7, r8, r9, ip, lr}
 8021abc:	08024b80 	stmdaeq	r2, {r7, r8, r9, fp, lr}
 8021ac0:	08024cc8 	stmdaeq	r2, {r3, r6, r7, sl, fp, lr}
 8021ac4:	20001578 	andcs	r1, r0, r8, ror r5
 8021ac8:	20001680 	andcs	r1, r0, r0, lsl #13

08021acc <rt_enter_critical>:
 8021acc:	b598      	push	{r3, r4, r7, lr}
 8021ace:	af00      	add	r7, sp, #0
 8021ad0:	f7fe fb88 	bl	80201e4 <rt_hw_interrupt_disable>
 8021ad4:	4604      	mov	r4, r0
 8021ad6:	4b07      	ldr	r3, [pc, #28]	; (8021af4 <rt_enter_critical+0x28>)
 8021ad8:	f9b3 3000 	ldrsh.w	r3, [r3]
 8021adc:	b29b      	uxth	r3, r3
 8021ade:	3301      	adds	r3, #1
 8021ae0:	b29b      	uxth	r3, r3
 8021ae2:	b21a      	sxth	r2, r3
 8021ae4:	4b03      	ldr	r3, [pc, #12]	; (8021af4 <rt_enter_critical+0x28>)
 8021ae6:	801a      	strh	r2, [r3, #0]
 8021ae8:	4620      	mov	r0, r4
 8021aea:	f7fe fb7f 	bl	80201ec <rt_hw_interrupt_enable>
 8021aee:	bf00      	nop
 8021af0:	bd98      	pop	{r3, r4, r7, pc}
 8021af2:	bf00      	nop
 8021af4:	200014a0 	andcs	r1, r0, r0, lsr #9

08021af8 <rt_exit_critical>:
 8021af8:	b598      	push	{r3, r4, r7, lr}
 8021afa:	af00      	add	r7, sp, #0
 8021afc:	f7fe fb72 	bl	80201e4 <rt_hw_interrupt_disable>
 8021b00:	4604      	mov	r4, r0
 8021b02:	4b10      	ldr	r3, [pc, #64]	; (8021b44 <rt_exit_critical+0x4c>)
 8021b04:	f9b3 3000 	ldrsh.w	r3, [r3]
 8021b08:	b29b      	uxth	r3, r3
 8021b0a:	3b01      	subs	r3, #1
 8021b0c:	b29b      	uxth	r3, r3
 8021b0e:	b21a      	sxth	r2, r3
 8021b10:	4b0c      	ldr	r3, [pc, #48]	; (8021b44 <rt_exit_critical+0x4c>)
 8021b12:	801a      	strh	r2, [r3, #0]
 8021b14:	4b0b      	ldr	r3, [pc, #44]	; (8021b44 <rt_exit_critical+0x4c>)
 8021b16:	f9b3 3000 	ldrsh.w	r3, [r3]
 8021b1a:	2b00      	cmp	r3, #0
 8021b1c:	dc0c      	bgt.n	8021b38 <rt_exit_critical+0x40>
 8021b1e:	4b09      	ldr	r3, [pc, #36]	; (8021b44 <rt_exit_critical+0x4c>)
 8021b20:	2200      	movs	r2, #0
 8021b22:	801a      	strh	r2, [r3, #0]
 8021b24:	4620      	mov	r0, r4
 8021b26:	f7fe fb61 	bl	80201ec <rt_hw_interrupt_enable>
 8021b2a:	4b07      	ldr	r3, [pc, #28]	; (8021b48 <rt_exit_critical+0x50>)
 8021b2c:	681b      	ldr	r3, [r3, #0]
 8021b2e:	2b00      	cmp	r3, #0
 8021b30:	d005      	beq.n	8021b3e <rt_exit_critical+0x46>
 8021b32:	f7ff fecb 	bl	80218cc <rt_schedule>
 8021b36:	e002      	b.n	8021b3e <rt_exit_critical+0x46>
 8021b38:	4620      	mov	r0, r4
 8021b3a:	f7fe fb57 	bl	80201ec <rt_hw_interrupt_enable>
 8021b3e:	bf00      	nop
 8021b40:	bd98      	pop	{r3, r4, r7, pc}
 8021b42:	bf00      	nop
 8021b44:	200014a0 	andcs	r1, r0, r0, lsr #9
 8021b48:	2000167c 	andcs	r1, r0, ip, ror r6

08021b4c <rt_list_init>:
 8021b4c:	b480      	push	{r7}
 8021b4e:	b083      	sub	sp, #12
 8021b50:	af00      	add	r7, sp, #0
 8021b52:	6078      	str	r0, [r7, #4]
 8021b54:	687b      	ldr	r3, [r7, #4]
 8021b56:	687a      	ldr	r2, [r7, #4]
 8021b58:	605a      	str	r2, [r3, #4]
 8021b5a:	687b      	ldr	r3, [r7, #4]
 8021b5c:	685a      	ldr	r2, [r3, #4]
 8021b5e:	687b      	ldr	r3, [r7, #4]
 8021b60:	601a      	str	r2, [r3, #0]
 8021b62:	bf00      	nop
 8021b64:	370c      	adds	r7, #12
 8021b66:	46bd      	mov	sp, r7
 8021b68:	f85d 7b04 	ldr.w	r7, [sp], #4
 8021b6c:	4770      	bx	lr
 8021b6e:	bf00      	nop

08021b70 <rt_list_insert_after>:
 8021b70:	b480      	push	{r7}
 8021b72:	b083      	sub	sp, #12
 8021b74:	af00      	add	r7, sp, #0
 8021b76:	6078      	str	r0, [r7, #4]
 8021b78:	6039      	str	r1, [r7, #0]
 8021b7a:	687b      	ldr	r3, [r7, #4]
 8021b7c:	681b      	ldr	r3, [r3, #0]
 8021b7e:	683a      	ldr	r2, [r7, #0]
 8021b80:	605a      	str	r2, [r3, #4]
 8021b82:	687b      	ldr	r3, [r7, #4]
 8021b84:	681a      	ldr	r2, [r3, #0]
 8021b86:	683b      	ldr	r3, [r7, #0]
 8021b88:	601a      	str	r2, [r3, #0]
 8021b8a:	687b      	ldr	r3, [r7, #4]
 8021b8c:	683a      	ldr	r2, [r7, #0]
 8021b8e:	601a      	str	r2, [r3, #0]
 8021b90:	683b      	ldr	r3, [r7, #0]
 8021b92:	687a      	ldr	r2, [r7, #4]
 8021b94:	605a      	str	r2, [r3, #4]
 8021b96:	bf00      	nop
 8021b98:	370c      	adds	r7, #12
 8021b9a:	46bd      	mov	sp, r7
 8021b9c:	f85d 7b04 	ldr.w	r7, [sp], #4
 8021ba0:	4770      	bx	lr
 8021ba2:	bf00      	nop

08021ba4 <rt_list_insert_before>:
 8021ba4:	b480      	push	{r7}
 8021ba6:	b083      	sub	sp, #12
 8021ba8:	af00      	add	r7, sp, #0
 8021baa:	6078      	str	r0, [r7, #4]
 8021bac:	6039      	str	r1, [r7, #0]
 8021bae:	687b      	ldr	r3, [r7, #4]
 8021bb0:	685b      	ldr	r3, [r3, #4]
 8021bb2:	683a      	ldr	r2, [r7, #0]
 8021bb4:	601a      	str	r2, [r3, #0]
 8021bb6:	687b      	ldr	r3, [r7, #4]
 8021bb8:	685a      	ldr	r2, [r3, #4]
 8021bba:	683b      	ldr	r3, [r7, #0]
 8021bbc:	605a      	str	r2, [r3, #4]
 8021bbe:	687b      	ldr	r3, [r7, #4]
 8021bc0:	683a      	ldr	r2, [r7, #0]
 8021bc2:	605a      	str	r2, [r3, #4]
 8021bc4:	683b      	ldr	r3, [r7, #0]
 8021bc6:	687a      	ldr	r2, [r7, #4]
 8021bc8:	601a      	str	r2, [r3, #0]
 8021bca:	bf00      	nop
 8021bcc:	370c      	adds	r7, #12
 8021bce:	46bd      	mov	sp, r7
 8021bd0:	f85d 7b04 	ldr.w	r7, [sp], #4
 8021bd4:	4770      	bx	lr
 8021bd6:	bf00      	nop

08021bd8 <rt_list_remove>:
 8021bd8:	b480      	push	{r7}
 8021bda:	b083      	sub	sp, #12
 8021bdc:	af00      	add	r7, sp, #0
 8021bde:	6078      	str	r0, [r7, #4]
 8021be0:	687b      	ldr	r3, [r7, #4]
 8021be2:	681b      	ldr	r3, [r3, #0]
 8021be4:	687a      	ldr	r2, [r7, #4]
 8021be6:	6852      	ldr	r2, [r2, #4]
 8021be8:	605a      	str	r2, [r3, #4]
 8021bea:	687b      	ldr	r3, [r7, #4]
 8021bec:	685b      	ldr	r3, [r3, #4]
 8021bee:	687a      	ldr	r2, [r7, #4]
 8021bf0:	6812      	ldr	r2, [r2, #0]
 8021bf2:	601a      	str	r2, [r3, #0]
 8021bf4:	687b      	ldr	r3, [r7, #4]
 8021bf6:	687a      	ldr	r2, [r7, #4]
 8021bf8:	605a      	str	r2, [r3, #4]
 8021bfa:	687b      	ldr	r3, [r7, #4]
 8021bfc:	685a      	ldr	r2, [r3, #4]
 8021bfe:	687b      	ldr	r3, [r7, #4]
 8021c00:	601a      	str	r2, [r3, #0]
 8021c02:	bf00      	nop
 8021c04:	370c      	adds	r7, #12
 8021c06:	46bd      	mov	sp, r7
 8021c08:	f85d 7b04 	ldr.w	r7, [sp], #4
 8021c0c:	4770      	bx	lr
 8021c0e:	bf00      	nop

08021c10 <rt_thread_exit>:
 8021c10:	b590      	push	{r4, r7, lr}
 8021c12:	b083      	sub	sp, #12
 8021c14:	af00      	add	r7, sp, #0
 8021c16:	4b17      	ldr	r3, [pc, #92]	; (8021c74 <rt_thread_exit+0x64>)
 8021c18:	681b      	ldr	r3, [r3, #0]
 8021c1a:	607b      	str	r3, [r7, #4]
 8021c1c:	f7fe fae2 	bl	80201e4 <rt_hw_interrupt_disable>
 8021c20:	4604      	mov	r4, r0
 8021c22:	6878      	ldr	r0, [r7, #4]
 8021c24:	f7ff ff10 	bl	8021a48 <rt_schedule_remove_thread>
 8021c28:	687b      	ldr	r3, [r7, #4]
 8021c2a:	2204      	movs	r2, #4
 8021c2c:	f883 2034 	strb.w	r2, [r3, #52]	; 0x34
 8021c30:	687b      	ldr	r3, [r7, #4]
 8021c32:	3344      	adds	r3, #68	; 0x44
 8021c34:	4618      	mov	r0, r3
 8021c36:	f000 fb7b 	bl	8022330 <rt_timer_detach>
 8021c3a:	6878      	ldr	r0, [r7, #4]
 8021c3c:	f7ff fd10 	bl	8021660 <rt_object_is_systemobject>
 8021c40:	4603      	mov	r3, r0
 8021c42:	2b01      	cmp	r3, #1
 8021c44:	d107      	bne.n	8021c56 <rt_thread_exit+0x46>
 8021c46:	687b      	ldr	r3, [r7, #4]
 8021c48:	6f1b      	ldr	r3, [r3, #112]	; 0x70
 8021c4a:	2b00      	cmp	r3, #0
 8021c4c:	d103      	bne.n	8021c56 <rt_thread_exit+0x46>
 8021c4e:	6878      	ldr	r0, [r7, #4]
 8021c50:	f7ff fce2 	bl	8021618 <rt_object_detach>
 8021c54:	e005      	b.n	8021c62 <rt_thread_exit+0x52>
 8021c56:	687b      	ldr	r3, [r7, #4]
 8021c58:	3314      	adds	r3, #20
 8021c5a:	4619      	mov	r1, r3
 8021c5c:	4806      	ldr	r0, [pc, #24]	; (8021c78 <rt_thread_exit+0x68>)
 8021c5e:	f7ff ff87 	bl	8021b70 <rt_list_insert_after>
 8021c62:	4620      	mov	r0, r4
 8021c64:	f7fe fac2 	bl	80201ec <rt_hw_interrupt_enable>
 8021c68:	f7ff fe30 	bl	80218cc <rt_schedule>
 8021c6c:	bf00      	nop
 8021c6e:	370c      	adds	r7, #12
 8021c70:	46bd      	mov	sp, r7
 8021c72:	bd90      	pop	{r4, r7, pc}
 8021c74:	2000167c 	andcs	r1, r0, ip, ror r6
 8021c78:	20001684 	andcs	r1, r0, r4, lsl #13

08021c7c <_rt_thread_init>:
 8021c7c:	b580      	push	{r7, lr}
 8021c7e:	b086      	sub	sp, #24
 8021c80:	af02      	add	r7, sp, #8
 8021c82:	60f8      	str	r0, [r7, #12]
 8021c84:	60b9      	str	r1, [r7, #8]
 8021c86:	607a      	str	r2, [r7, #4]
 8021c88:	603b      	str	r3, [r7, #0]
 8021c8a:	68fb      	ldr	r3, [r7, #12]
 8021c8c:	3314      	adds	r3, #20
 8021c8e:	4618      	mov	r0, r3
 8021c90:	f7ff ff5c 	bl	8021b4c <rt_list_init>
 8021c94:	68fb      	ldr	r3, [r7, #12]
 8021c96:	687a      	ldr	r2, [r7, #4]
 8021c98:	621a      	str	r2, [r3, #32]
 8021c9a:	68fb      	ldr	r3, [r7, #12]
 8021c9c:	683a      	ldr	r2, [r7, #0]
 8021c9e:	625a      	str	r2, [r3, #36]	; 0x24
 8021ca0:	68fb      	ldr	r3, [r7, #12]
 8021ca2:	69ba      	ldr	r2, [r7, #24]
 8021ca4:	629a      	str	r2, [r3, #40]	; 0x28
 8021ca6:	68fb      	ldr	r3, [r7, #12]
 8021ca8:	69fa      	ldr	r2, [r7, #28]
 8021caa:	62da      	str	r2, [r3, #44]	; 0x2c
 8021cac:	68fb      	ldr	r3, [r7, #12]
 8021cae:	6a98      	ldr	r0, [r3, #40]	; 0x28
 8021cb0:	68fb      	ldr	r3, [r7, #12]
 8021cb2:	6adb      	ldr	r3, [r3, #44]	; 0x2c
 8021cb4:	461a      	mov	r2, r3
 8021cb6:	2123      	movs	r1, #35	; 0x23
 8021cb8:	f7fe fed0 	bl	8020a5c <rt_memset>
 8021cbc:	68fb      	ldr	r3, [r7, #12]
 8021cbe:	6a18      	ldr	r0, [r3, #32]
 8021cc0:	68fb      	ldr	r3, [r7, #12]
 8021cc2:	6a59      	ldr	r1, [r3, #36]	; 0x24
 8021cc4:	68fb      	ldr	r3, [r7, #12]
 8021cc6:	6a9a      	ldr	r2, [r3, #40]	; 0x28
 8021cc8:	68fb      	ldr	r3, [r7, #12]
 8021cca:	6adb      	ldr	r3, [r3, #44]	; 0x2c
 8021ccc:	3b04      	subs	r3, #4
 8021cce:	441a      	add	r2, r3
 8021cd0:	4b1f      	ldr	r3, [pc, #124]	; (8021d50 <_rt_thread_init+0xd4>)
 8021cd2:	f000 fd71 	bl	80227b8 <rt_hw_stack_init>
 8021cd6:	4602      	mov	r2, r0
 8021cd8:	68fb      	ldr	r3, [r7, #12]
 8021cda:	61da      	str	r2, [r3, #28]
 8021cdc:	f897 3020 	ldrb.w	r3, [r7, #32]
 8021ce0:	2b1f      	cmp	r3, #31
 8021ce2:	d904      	bls.n	8021cee <_rt_thread_init+0x72>
 8021ce4:	2296      	movs	r2, #150	; 0x96
 8021ce6:	491b      	ldr	r1, [pc, #108]	; (8021d54 <_rt_thread_init+0xd8>)
 8021ce8:	481b      	ldr	r0, [pc, #108]	; (8021d58 <_rt_thread_init+0xdc>)
 8021cea:	f7ff fbbd 	bl	8021468 <rt_assert_handler>
 8021cee:	68fb      	ldr	r3, [r7, #12]
 8021cf0:	f897 2020 	ldrb.w	r2, [r7, #32]
 8021cf4:	f883 2036 	strb.w	r2, [r3, #54]	; 0x36
 8021cf8:	68fb      	ldr	r3, [r7, #12]
 8021cfa:	f897 2020 	ldrb.w	r2, [r7, #32]
 8021cfe:	f883 2035 	strb.w	r2, [r3, #53]	; 0x35
 8021d02:	68fb      	ldr	r3, [r7, #12]
 8021d04:	2200      	movs	r2, #0
 8021d06:	639a      	str	r2, [r3, #56]	; 0x38
 8021d08:	68fb      	ldr	r3, [r7, #12]
 8021d0a:	6a7a      	ldr	r2, [r7, #36]	; 0x24
 8021d0c:	63da      	str	r2, [r3, #60]	; 0x3c
 8021d0e:	68fb      	ldr	r3, [r7, #12]
 8021d10:	6a7a      	ldr	r2, [r7, #36]	; 0x24
 8021d12:	641a      	str	r2, [r3, #64]	; 0x40
 8021d14:	68fb      	ldr	r3, [r7, #12]
 8021d16:	2200      	movs	r2, #0
 8021d18:	631a      	str	r2, [r3, #48]	; 0x30
 8021d1a:	68fb      	ldr	r3, [r7, #12]
 8021d1c:	2200      	movs	r2, #0
 8021d1e:	f883 2034 	strb.w	r2, [r3, #52]	; 0x34
 8021d22:	68fb      	ldr	r3, [r7, #12]
 8021d24:	2200      	movs	r2, #0
 8021d26:	671a      	str	r2, [r3, #112]	; 0x70
 8021d28:	68fb      	ldr	r3, [r7, #12]
 8021d2a:	2200      	movs	r2, #0
 8021d2c:	675a      	str	r2, [r3, #116]	; 0x74
 8021d2e:	68fb      	ldr	r3, [r7, #12]
 8021d30:	f103 0044 	add.w	r0, r3, #68	; 0x44
 8021d34:	68f9      	ldr	r1, [r7, #12]
 8021d36:	2300      	movs	r3, #0
 8021d38:	9301      	str	r3, [sp, #4]
 8021d3a:	2300      	movs	r3, #0
 8021d3c:	9300      	str	r3, [sp, #0]
 8021d3e:	68fb      	ldr	r3, [r7, #12]
 8021d40:	4a06      	ldr	r2, [pc, #24]	; (8021d5c <_rt_thread_init+0xe0>)
 8021d42:	f000 fad1 	bl	80222e8 <rt_timer_init>
 8021d46:	2300      	movs	r3, #0
 8021d48:	4618      	mov	r0, r3
 8021d4a:	3710      	adds	r7, #16
 8021d4c:	46bd      	mov	sp, r7
 8021d4e:	bd80      	pop	{r7, pc}
 8021d50:	08021c11 	stmdaeq	r2, {r0, r4, sl, fp, ip}
 8021d54:	080253e8 	stmdaeq	r2, {r3, r5, r6, r7, r8, r9, ip, lr}
 8021d58:	08024cf0 	stmdaeq	r2, {r4, r5, r6, r7, sl, fp, lr}
 8021d5c:	08022115 	stmdaeq	r2, {r0, r2, r4, r8, sp}

08021d60 <rt_thread_init>:
 8021d60:	b580      	push	{r7, lr}
 8021d62:	b088      	sub	sp, #32
 8021d64:	af04      	add	r7, sp, #16
 8021d66:	60f8      	str	r0, [r7, #12]
 8021d68:	60b9      	str	r1, [r7, #8]
 8021d6a:	607a      	str	r2, [r7, #4]
 8021d6c:	603b      	str	r3, [r7, #0]
 8021d6e:	68fb      	ldr	r3, [r7, #12]
 8021d70:	2b00      	cmp	r3, #0
 8021d72:	d104      	bne.n	8021d7e <rt_thread_init+0x1e>
 8021d74:	22e6      	movs	r2, #230	; 0xe6
 8021d76:	4912      	ldr	r1, [pc, #72]	; (8021dc0 <rt_thread_init+0x60>)
 8021d78:	4812      	ldr	r0, [pc, #72]	; (8021dc4 <rt_thread_init+0x64>)
 8021d7a:	f7ff fb75 	bl	8021468 <rt_assert_handler>
 8021d7e:	69bb      	ldr	r3, [r7, #24]
 8021d80:	2b00      	cmp	r3, #0
 8021d82:	d104      	bne.n	8021d8e <rt_thread_init+0x2e>
 8021d84:	22e7      	movs	r2, #231	; 0xe7
 8021d86:	490e      	ldr	r1, [pc, #56]	; (8021dc0 <rt_thread_init+0x60>)
 8021d88:	480f      	ldr	r0, [pc, #60]	; (8021dc8 <rt_thread_init+0x68>)
 8021d8a:	f7ff fb6d 	bl	8021468 <rt_assert_handler>
 8021d8e:	68ba      	ldr	r2, [r7, #8]
 8021d90:	2101      	movs	r1, #1
 8021d92:	68f8      	ldr	r0, [r7, #12]
 8021d94:	f7ff fbe8 	bl	8021568 <rt_object_init>
 8021d98:	6a7b      	ldr	r3, [r7, #36]	; 0x24
 8021d9a:	9303      	str	r3, [sp, #12]
 8021d9c:	f897 3020 	ldrb.w	r3, [r7, #32]
 8021da0:	9302      	str	r3, [sp, #8]
 8021da2:	69fb      	ldr	r3, [r7, #28]
 8021da4:	9301      	str	r3, [sp, #4]
 8021da6:	69bb      	ldr	r3, [r7, #24]
 8021da8:	9300      	str	r3, [sp, #0]
 8021daa:	683b      	ldr	r3, [r7, #0]
 8021dac:	687a      	ldr	r2, [r7, #4]
 8021dae:	68b9      	ldr	r1, [r7, #8]
 8021db0:	68f8      	ldr	r0, [r7, #12]
 8021db2:	f7ff ff63 	bl	8021c7c <_rt_thread_init>
 8021db6:	4603      	mov	r3, r0
 8021db8:	4618      	mov	r0, r3
 8021dba:	3710      	adds	r7, #16
 8021dbc:	46bd      	mov	sp, r7
 8021dbe:	bd80      	pop	{r7, pc}
 8021dc0:	080253f8 	stmdaeq	r2, {r3, r4, r5, r6, r7, r8, r9, ip, lr}
 8021dc4:	08024d14 	stmdaeq	r2, {r2, r4, r8, sl, fp, lr}
 8021dc8:	08024d28 	stmdaeq	r2, {r3, r5, r8, sl, fp, lr}

08021dcc <rt_thread_self>:
 8021dcc:	b480      	push	{r7}
 8021dce:	af00      	add	r7, sp, #0
 8021dd0:	4b03      	ldr	r3, [pc, #12]	; (8021de0 <rt_thread_self+0x14>)
 8021dd2:	681b      	ldr	r3, [r3, #0]
 8021dd4:	4618      	mov	r0, r3
 8021dd6:	46bd      	mov	sp, r7
 8021dd8:	f85d 7b04 	ldr.w	r7, [sp], #4
 8021ddc:	4770      	bx	lr
 8021dde:	bf00      	nop
 8021de0:	2000167c 	andcs	r1, r0, ip, ror r6

08021de4 <rt_thread_startup>:
 8021de4:	b580      	push	{r7, lr}
 8021de6:	b082      	sub	sp, #8
 8021de8:	af00      	add	r7, sp, #0
 8021dea:	6078      	str	r0, [r7, #4]
 8021dec:	687b      	ldr	r3, [r7, #4]
 8021dee:	2b00      	cmp	r3, #0
 8021df0:	d105      	bne.n	8021dfe <rt_thread_startup+0x1a>
 8021df2:	f44f 7286 	mov.w	r2, #268	; 0x10c
 8021df6:	4923      	ldr	r1, [pc, #140]	; (8021e84 <rt_thread_startup+0xa0>)
 8021df8:	4823      	ldr	r0, [pc, #140]	; (8021e88 <rt_thread_startup+0xa4>)
 8021dfa:	f7ff fb35 	bl	8021468 <rt_assert_handler>
 8021dfe:	687b      	ldr	r3, [r7, #4]
 8021e00:	f893 3034 	ldrb.w	r3, [r3, #52]	; 0x34
 8021e04:	f003 030f 	and.w	r3, r3, #15
 8021e08:	2b00      	cmp	r3, #0
 8021e0a:	d005      	beq.n	8021e18 <rt_thread_startup+0x34>
 8021e0c:	f240 120d 	movw	r2, #269	; 0x10d
 8021e10:	491c      	ldr	r1, [pc, #112]	; (8021e84 <rt_thread_startup+0xa0>)
 8021e12:	481e      	ldr	r0, [pc, #120]	; (8021e8c <rt_thread_startup+0xa8>)
 8021e14:	f7ff fb28 	bl	8021468 <rt_assert_handler>
 8021e18:	6878      	ldr	r0, [r7, #4]
 8021e1a:	f7ff fc3f 	bl	802169c <rt_object_get_type>
 8021e1e:	4603      	mov	r3, r0
 8021e20:	2b01      	cmp	r3, #1
 8021e22:	d005      	beq.n	8021e30 <rt_thread_startup+0x4c>
 8021e24:	f44f 7287 	mov.w	r2, #270	; 0x10e
 8021e28:	4916      	ldr	r1, [pc, #88]	; (8021e84 <rt_thread_startup+0xa0>)
 8021e2a:	4819      	ldr	r0, [pc, #100]	; (8021e90 <rt_thread_startup+0xac>)
 8021e2c:	f7ff fb1c 	bl	8021468 <rt_assert_handler>
 8021e30:	687b      	ldr	r3, [r7, #4]
 8021e32:	f893 2036 	ldrb.w	r2, [r3, #54]	; 0x36
 8021e36:	687b      	ldr	r3, [r7, #4]
 8021e38:	f883 2035 	strb.w	r2, [r3, #53]	; 0x35
 8021e3c:	687b      	ldr	r3, [r7, #4]
 8021e3e:	f893 3035 	ldrb.w	r3, [r3, #53]	; 0x35
 8021e42:	461a      	mov	r2, r3
 8021e44:	2301      	movs	r3, #1
 8021e46:	4093      	lsls	r3, r2
 8021e48:	461a      	mov	r2, r3
 8021e4a:	687b      	ldr	r3, [r7, #4]
 8021e4c:	639a      	str	r2, [r3, #56]	; 0x38
 8021e4e:	6879      	ldr	r1, [r7, #4]
 8021e50:	687b      	ldr	r3, [r7, #4]
 8021e52:	f893 3036 	ldrb.w	r3, [r3, #54]	; 0x36
 8021e56:	461a      	mov	r2, r3
 8021e58:	480e      	ldr	r0, [pc, #56]	; (8021e94 <rt_thread_startup+0xb0>)
 8021e5a:	f7ff faad 	bl	80213b8 <rt_kprintf>
 8021e5e:	687b      	ldr	r3, [r7, #4]
 8021e60:	2202      	movs	r2, #2
 8021e62:	f883 2034 	strb.w	r2, [r3, #52]	; 0x34
 8021e66:	6878      	ldr	r0, [r7, #4]
 8021e68:	f000 f902 	bl	8022070 <rt_thread_resume>
 8021e6c:	f7ff ffae 	bl	8021dcc <rt_thread_self>
 8021e70:	4603      	mov	r3, r0
 8021e72:	2b00      	cmp	r3, #0
 8021e74:	d001      	beq.n	8021e7a <rt_thread_startup+0x96>
 8021e76:	f7ff fd29 	bl	80218cc <rt_schedule>
 8021e7a:	2300      	movs	r3, #0
 8021e7c:	4618      	mov	r0, r3
 8021e7e:	3708      	adds	r7, #8
 8021e80:	46bd      	mov	sp, r7
 8021e82:	bd80      	pop	{r7, pc}
 8021e84:	08025408 	stmdaeq	r2, {r3, sl, ip, lr}
 8021e88:	08024d14 	stmdaeq	r2, {r2, r4, r8, sl, fp, lr}
 8021e8c:	08024d40 	stmdaeq	r2, {r6, r8, sl, fp, lr}
 8021e90:	08024d78 	stmdaeq	r2, {r3, r4, r5, r6, r8, sl, fp, lr}
 8021e94:	08024dbc 	stmdaeq	r2, {r2, r3, r4, r5, r7, r8, sl, fp, lr}

08021e98 <rt_thread_yield>:
 8021e98:	b590      	push	{r4, r7, lr}
 8021e9a:	b083      	sub	sp, #12
 8021e9c:	af00      	add	r7, sp, #0
 8021e9e:	f7fe f9a1 	bl	80201e4 <rt_hw_interrupt_disable>
 8021ea2:	4604      	mov	r4, r0
 8021ea4:	4b17      	ldr	r3, [pc, #92]	; (8021f04 <rt_thread_yield+0x6c>)
 8021ea6:	681b      	ldr	r3, [r3, #0]
 8021ea8:	607b      	str	r3, [r7, #4]
 8021eaa:	687b      	ldr	r3, [r7, #4]
 8021eac:	f893 3034 	ldrb.w	r3, [r3, #52]	; 0x34
 8021eb0:	f003 030f 	and.w	r3, r3, #15
 8021eb4:	2b01      	cmp	r3, #1
 8021eb6:	d11d      	bne.n	8021ef4 <rt_thread_yield+0x5c>
 8021eb8:	687b      	ldr	r3, [r7, #4]
 8021eba:	695a      	ldr	r2, [r3, #20]
 8021ebc:	687b      	ldr	r3, [r7, #4]
 8021ebe:	699b      	ldr	r3, [r3, #24]
 8021ec0:	429a      	cmp	r2, r3
 8021ec2:	d017      	beq.n	8021ef4 <rt_thread_yield+0x5c>
 8021ec4:	687b      	ldr	r3, [r7, #4]
 8021ec6:	3314      	adds	r3, #20
 8021ec8:	4618      	mov	r0, r3
 8021eca:	f7ff fe85 	bl	8021bd8 <rt_list_remove>
 8021ece:	687b      	ldr	r3, [r7, #4]
 8021ed0:	f893 3035 	ldrb.w	r3, [r3, #53]	; 0x35
 8021ed4:	00db      	lsls	r3, r3, #3
 8021ed6:	4a0c      	ldr	r2, [pc, #48]	; (8021f08 <rt_thread_yield+0x70>)
 8021ed8:	441a      	add	r2, r3
 8021eda:	687b      	ldr	r3, [r7, #4]
 8021edc:	3314      	adds	r3, #20
 8021ede:	4619      	mov	r1, r3
 8021ee0:	4610      	mov	r0, r2
 8021ee2:	f7ff fe5f 	bl	8021ba4 <rt_list_insert_before>
 8021ee6:	4620      	mov	r0, r4
 8021ee8:	f7fe f980 	bl	80201ec <rt_hw_interrupt_enable>
 8021eec:	f7ff fcee 	bl	80218cc <rt_schedule>
 8021ef0:	2300      	movs	r3, #0
 8021ef2:	e003      	b.n	8021efc <rt_thread_yield+0x64>
 8021ef4:	4620      	mov	r0, r4
 8021ef6:	f7fe f979 	bl	80201ec <rt_hw_interrupt_enable>
 8021efa:	2300      	movs	r3, #0
 8021efc:	4618      	mov	r0, r3
 8021efe:	370c      	adds	r7, #12
 8021f00:	46bd      	mov	sp, r7
 8021f02:	bd90      	pop	{r4, r7, pc}
 8021f04:	2000167c 	andcs	r1, r0, ip, ror r6
 8021f08:	20001578 	andcs	r1, r0, r8, ror r5

08021f0c <rt_thread_sleep>:
 8021f0c:	b590      	push	{r4, r7, lr}
 8021f0e:	b085      	sub	sp, #20
 8021f10:	af00      	add	r7, sp, #0
 8021f12:	6078      	str	r0, [r7, #4]
 8021f14:	f7fe f966 	bl	80201e4 <rt_hw_interrupt_disable>
 8021f18:	4604      	mov	r4, r0
 8021f1a:	4b1c      	ldr	r3, [pc, #112]	; (8021f8c <rt_thread_sleep+0x80>)
 8021f1c:	681b      	ldr	r3, [r3, #0]
 8021f1e:	60fb      	str	r3, [r7, #12]
 8021f20:	68fb      	ldr	r3, [r7, #12]
 8021f22:	2b00      	cmp	r3, #0
 8021f24:	d105      	bne.n	8021f32 <rt_thread_sleep+0x26>
 8021f26:	f44f 72fb 	mov.w	r2, #502	; 0x1f6
 8021f2a:	4919      	ldr	r1, [pc, #100]	; (8021f90 <rt_thread_sleep+0x84>)
 8021f2c:	4819      	ldr	r0, [pc, #100]	; (8021f94 <rt_thread_sleep+0x88>)
 8021f2e:	f7ff fa9b 	bl	8021468 <rt_assert_handler>
 8021f32:	68f8      	ldr	r0, [r7, #12]
 8021f34:	f7ff fbb2 	bl	802169c <rt_object_get_type>
 8021f38:	4603      	mov	r3, r0
 8021f3a:	2b01      	cmp	r3, #1
 8021f3c:	d005      	beq.n	8021f4a <rt_thread_sleep+0x3e>
 8021f3e:	f240 12f7 	movw	r2, #503	; 0x1f7
 8021f42:	4913      	ldr	r1, [pc, #76]	; (8021f90 <rt_thread_sleep+0x84>)
 8021f44:	4814      	ldr	r0, [pc, #80]	; (8021f98 <rt_thread_sleep+0x8c>)
 8021f46:	f7ff fa8f 	bl	8021468 <rt_assert_handler>
 8021f4a:	68f8      	ldr	r0, [r7, #12]
 8021f4c:	f000 f836 	bl	8021fbc <rt_thread_suspend>
 8021f50:	68fb      	ldr	r3, [r7, #12]
 8021f52:	3344      	adds	r3, #68	; 0x44
 8021f54:	1d3a      	adds	r2, r7, #4
 8021f56:	2100      	movs	r1, #0
 8021f58:	4618      	mov	r0, r3
 8021f5a:	f000 fb59 	bl	8022610 <rt_timer_control>
 8021f5e:	68fb      	ldr	r3, [r7, #12]
 8021f60:	3344      	adds	r3, #68	; 0x44
 8021f62:	4618      	mov	r0, r3
 8021f64:	f000 fa22 	bl	80223ac <rt_timer_start>
 8021f68:	4620      	mov	r0, r4
 8021f6a:	f7fe f93f 	bl	80201ec <rt_hw_interrupt_enable>
 8021f6e:	f7ff fcad 	bl	80218cc <rt_schedule>
 8021f72:	68fb      	ldr	r3, [r7, #12]
 8021f74:	6b1b      	ldr	r3, [r3, #48]	; 0x30
 8021f76:	f113 0f02 	cmn.w	r3, #2
 8021f7a:	d102      	bne.n	8021f82 <rt_thread_sleep+0x76>
 8021f7c:	68fb      	ldr	r3, [r7, #12]
 8021f7e:	2200      	movs	r2, #0
 8021f80:	631a      	str	r2, [r3, #48]	; 0x30
 8021f82:	2300      	movs	r3, #0
 8021f84:	4618      	mov	r0, r3
 8021f86:	3714      	adds	r7, #20
 8021f88:	46bd      	mov	sp, r7
 8021f8a:	bd90      	pop	{r4, r7, pc}
 8021f8c:	2000167c 	andcs	r1, r0, ip, ror r6
 8021f90:	0802541c 	stmdaeq	r2, {r2, r3, r4, sl, ip, lr}
 8021f94:	08024d14 	stmdaeq	r2, {r2, r4, r8, sl, fp, lr}
 8021f98:	08024d78 	stmdaeq	r2, {r3, r4, r5, r6, r8, sl, fp, lr}

08021f9c <rt_thread_mdelay>:
 8021f9c:	b580      	push	{r7, lr}
 8021f9e:	b084      	sub	sp, #16
 8021fa0:	af00      	add	r7, sp, #0
 8021fa2:	6078      	str	r0, [r7, #4]
 8021fa4:	6878      	ldr	r0, [r7, #4]
 8021fa6:	f7fe fb73 	bl	8020690 <rt_tick_from_millisecond>
 8021faa:	60f8      	str	r0, [r7, #12]
 8021fac:	68f8      	ldr	r0, [r7, #12]
 8021fae:	f7ff ffad 	bl	8021f0c <rt_thread_sleep>
 8021fb2:	4603      	mov	r3, r0
 8021fb4:	4618      	mov	r0, r3
 8021fb6:	3710      	adds	r7, #16
 8021fb8:	46bd      	mov	sp, r7
 8021fba:	bd80      	pop	{r7, pc}

08021fbc <rt_thread_suspend>:
 8021fbc:	b590      	push	{r4, r7, lr}
 8021fbe:	b083      	sub	sp, #12
 8021fc0:	af00      	add	r7, sp, #0
 8021fc2:	6078      	str	r0, [r7, #4]
 8021fc4:	687b      	ldr	r3, [r7, #4]
 8021fc6:	2b00      	cmp	r3, #0
 8021fc8:	d105      	bne.n	8021fd6 <rt_thread_suspend+0x1a>
 8021fca:	f240 228a 	movw	r2, #650	; 0x28a
 8021fce:	4923      	ldr	r1, [pc, #140]	; (802205c <rt_thread_suspend+0xa0>)
 8021fd0:	4823      	ldr	r0, [pc, #140]	; (8022060 <rt_thread_suspend+0xa4>)
 8021fd2:	f7ff fa49 	bl	8021468 <rt_assert_handler>
 8021fd6:	6878      	ldr	r0, [r7, #4]
 8021fd8:	f7ff fb60 	bl	802169c <rt_object_get_type>
 8021fdc:	4603      	mov	r3, r0
 8021fde:	2b01      	cmp	r3, #1
 8021fe0:	d005      	beq.n	8021fee <rt_thread_suspend+0x32>
 8021fe2:	f240 228b 	movw	r2, #651	; 0x28b
 8021fe6:	491d      	ldr	r1, [pc, #116]	; (802205c <rt_thread_suspend+0xa0>)
 8021fe8:	481e      	ldr	r0, [pc, #120]	; (8022064 <rt_thread_suspend+0xa8>)
 8021fea:	f7ff fa3d 	bl	8021468 <rt_assert_handler>
 8021fee:	687b      	ldr	r3, [r7, #4]
 8021ff0:	4619      	mov	r1, r3
 8021ff2:	481d      	ldr	r0, [pc, #116]	; (8022068 <rt_thread_suspend+0xac>)
 8021ff4:	f7ff f9e0 	bl	80213b8 <rt_kprintf>
 8021ff8:	687b      	ldr	r3, [r7, #4]
 8021ffa:	f893 3034 	ldrb.w	r3, [r3, #52]	; 0x34
 8021ffe:	f003 030f 	and.w	r3, r3, #15
 8022002:	2b01      	cmp	r3, #1
 8022004:	d009      	beq.n	802201a <rt_thread_suspend+0x5e>
 8022006:	687b      	ldr	r3, [r7, #4]
 8022008:	f893 3034 	ldrb.w	r3, [r3, #52]	; 0x34
 802200c:	4619      	mov	r1, r3
 802200e:	4817      	ldr	r0, [pc, #92]	; (802206c <rt_thread_suspend+0xb0>)
 8022010:	f7ff f9d2 	bl	80213b8 <rt_kprintf>
 8022014:	f04f 33ff 	mov.w	r3, #4294967295	; 0xffffffff
 8022018:	e01c      	b.n	8022054 <rt_thread_suspend+0x98>
 802201a:	f7fe f8e3 	bl	80201e4 <rt_hw_interrupt_disable>
 802201e:	4604      	mov	r4, r0
 8022020:	687b      	ldr	r3, [r7, #4]
 8022022:	f893 3034 	ldrb.w	r3, [r3, #52]	; 0x34
 8022026:	b25b      	sxtb	r3, r3
 8022028:	f023 030f 	bic.w	r3, r3, #15
 802202c:	b25b      	sxtb	r3, r3
 802202e:	f043 0302 	orr.w	r3, r3, #2
 8022032:	b25b      	sxtb	r3, r3
 8022034:	b2da      	uxtb	r2, r3
 8022036:	687b      	ldr	r3, [r7, #4]
 8022038:	f883 2034 	strb.w	r2, [r3, #52]	; 0x34
 802203c:	6878      	ldr	r0, [r7, #4]
 802203e:	f7ff fd03 	bl	8021a48 <rt_schedule_remove_thread>
 8022042:	687b      	ldr	r3, [r7, #4]
 8022044:	3344      	adds	r3, #68	; 0x44
 8022046:	4618      	mov	r0, r3
 8022048:	f000 faa4 	bl	8022594 <rt_timer_stop>
 802204c:	4620      	mov	r0, r4
 802204e:	f7fe f8cd 	bl	80201ec <rt_hw_interrupt_enable>
 8022052:	2300      	movs	r3, #0
 8022054:	4618      	mov	r0, r3
 8022056:	370c      	adds	r7, #12
 8022058:	46bd      	mov	sp, r7
 802205a:	bd90      	pop	{r4, r7, pc}
 802205c:	0802542c 	stmdaeq	r2, {r2, r3, r5, sl, ip, lr}
 8022060:	08024d14 	stmdaeq	r2, {r2, r4, r8, sl, fp, lr}
 8022064:	08024d78 	stmdaeq	r2, {r3, r4, r5, r6, r8, sl, fp, lr}
 8022068:	08024e14 	stmdaeq	r2, {r2, r4, r9, sl, fp, lr}
 802206c:	08024e2c 	stmdaeq	r2, {r2, r3, r5, r9, sl, fp, lr}

08022070 <rt_thread_resume>:
 8022070:	b590      	push	{r4, r7, lr}
 8022072:	b083      	sub	sp, #12
 8022074:	af00      	add	r7, sp, #0
 8022076:	6078      	str	r0, [r7, #4]
 8022078:	687b      	ldr	r3, [r7, #4]
 802207a:	2b00      	cmp	r3, #0
 802207c:	d105      	bne.n	802208a <rt_thread_resume+0x1a>
 802207e:	f240 22b5 	movw	r2, #693	; 0x2b5
 8022082:	491f      	ldr	r1, [pc, #124]	; (8022100 <rt_thread_resume+0x90>)
 8022084:	481f      	ldr	r0, [pc, #124]	; (8022104 <rt_thread_resume+0x94>)
 8022086:	f7ff f9ef 	bl	8021468 <rt_assert_handler>
 802208a:	6878      	ldr	r0, [r7, #4]
 802208c:	f7ff fb06 	bl	802169c <rt_object_get_type>
 8022090:	4603      	mov	r3, r0
 8022092:	2b01      	cmp	r3, #1
 8022094:	d005      	beq.n	80220a2 <rt_thread_resume+0x32>
 8022096:	f240 22b6 	movw	r2, #694	; 0x2b6
 802209a:	4919      	ldr	r1, [pc, #100]	; (8022100 <rt_thread_resume+0x90>)
 802209c:	481a      	ldr	r0, [pc, #104]	; (8022108 <rt_thread_resume+0x98>)
 802209e:	f7ff f9e3 	bl	8021468 <rt_assert_handler>
 80220a2:	687b      	ldr	r3, [r7, #4]
 80220a4:	4619      	mov	r1, r3
 80220a6:	4819      	ldr	r0, [pc, #100]	; (802210c <rt_thread_resume+0x9c>)
 80220a8:	f7ff f986 	bl	80213b8 <rt_kprintf>
 80220ac:	687b      	ldr	r3, [r7, #4]
 80220ae:	f893 3034 	ldrb.w	r3, [r3, #52]	; 0x34
 80220b2:	f003 030f 	and.w	r3, r3, #15
 80220b6:	2b02      	cmp	r3, #2
 80220b8:	d009      	beq.n	80220ce <rt_thread_resume+0x5e>
 80220ba:	687b      	ldr	r3, [r7, #4]
 80220bc:	f893 3034 	ldrb.w	r3, [r3, #52]	; 0x34
 80220c0:	4619      	mov	r1, r3
 80220c2:	4813      	ldr	r0, [pc, #76]	; (8022110 <rt_thread_resume+0xa0>)
 80220c4:	f7ff f978 	bl	80213b8 <rt_kprintf>
 80220c8:	f04f 33ff 	mov.w	r3, #4294967295	; 0xffffffff
 80220cc:	e013      	b.n	80220f6 <rt_thread_resume+0x86>
 80220ce:	f7fe f889 	bl	80201e4 <rt_hw_interrupt_disable>
 80220d2:	4604      	mov	r4, r0
 80220d4:	687b      	ldr	r3, [r7, #4]
 80220d6:	3314      	adds	r3, #20
 80220d8:	4618      	mov	r0, r3
 80220da:	f7ff fd7d 	bl	8021bd8 <rt_list_remove>
 80220de:	687b      	ldr	r3, [r7, #4]
 80220e0:	3344      	adds	r3, #68	; 0x44
 80220e2:	4618      	mov	r0, r3
 80220e4:	f000 fa56 	bl	8022594 <rt_timer_stop>
 80220e8:	4620      	mov	r0, r4
 80220ea:	f7fe f87f 	bl	80201ec <rt_hw_interrupt_enable>
 80220ee:	6878      	ldr	r0, [r7, #4]
 80220f0:	f7ff fc60 	bl	80219b4 <rt_schedule_insert_thread>
 80220f4:	2300      	movs	r3, #0
 80220f6:	4618      	mov	r0, r3
 80220f8:	370c      	adds	r7, #12
 80220fa:	46bd      	mov	sp, r7
 80220fc:	bd90      	pop	{r4, r7, pc}
 80220fe:	bf00      	nop
 8022100:	08025440 	stmdaeq	r2, {r6, sl, ip, lr}
 8022104:	08024d14 	stmdaeq	r2, {r2, r4, r8, sl, fp, lr}
 8022108:	08024d78 	stmdaeq	r2, {r3, r4, r5, r6, r8, sl, fp, lr}
 802210c:	08024e54 	stmdaeq	r2, {r2, r4, r6, r9, sl, fp, lr}
 8022110:	08024e68 	stmdaeq	r2, {r3, r5, r6, r9, sl, fp, lr}

08022114 <rt_thread_timeout>:
 8022114:	b580      	push	{r7, lr}
 8022116:	b084      	sub	sp, #16
 8022118:	af00      	add	r7, sp, #0
 802211a:	6078      	str	r0, [r7, #4]
 802211c:	687b      	ldr	r3, [r7, #4]
 802211e:	60fb      	str	r3, [r7, #12]
 8022120:	68fb      	ldr	r3, [r7, #12]
 8022122:	2b00      	cmp	r3, #0
 8022124:	d105      	bne.n	8022132 <rt_thread_timeout+0x1e>
 8022126:	f240 22e2 	movw	r2, #738	; 0x2e2
 802212a:	4917      	ldr	r1, [pc, #92]	; (8022188 <rt_thread_timeout+0x74>)
 802212c:	4817      	ldr	r0, [pc, #92]	; (802218c <rt_thread_timeout+0x78>)
 802212e:	f7ff f99b 	bl	8021468 <rt_assert_handler>
 8022132:	68fb      	ldr	r3, [r7, #12]
 8022134:	f893 3034 	ldrb.w	r3, [r3, #52]	; 0x34
 8022138:	f003 030f 	and.w	r3, r3, #15
 802213c:	2b02      	cmp	r3, #2
 802213e:	d005      	beq.n	802214c <rt_thread_timeout+0x38>
 8022140:	f240 22e3 	movw	r2, #739	; 0x2e3
 8022144:	4910      	ldr	r1, [pc, #64]	; (8022188 <rt_thread_timeout+0x74>)
 8022146:	4812      	ldr	r0, [pc, #72]	; (8022190 <rt_thread_timeout+0x7c>)
 8022148:	f7ff f98e 	bl	8021468 <rt_assert_handler>
 802214c:	68f8      	ldr	r0, [r7, #12]
 802214e:	f7ff faa5 	bl	802169c <rt_object_get_type>
 8022152:	4603      	mov	r3, r0
 8022154:	2b01      	cmp	r3, #1
 8022156:	d005      	beq.n	8022164 <rt_thread_timeout+0x50>
 8022158:	f44f 7239 	mov.w	r2, #740	; 0x2e4
 802215c:	490a      	ldr	r1, [pc, #40]	; (8022188 <rt_thread_timeout+0x74>)
 802215e:	480d      	ldr	r0, [pc, #52]	; (8022194 <rt_thread_timeout+0x80>)
 8022160:	f7ff f982 	bl	8021468 <rt_assert_handler>
 8022164:	68fb      	ldr	r3, [r7, #12]
 8022166:	f06f 0201 	mvn.w	r2, #1
 802216a:	631a      	str	r2, [r3, #48]	; 0x30
 802216c:	68fb      	ldr	r3, [r7, #12]
 802216e:	3314      	adds	r3, #20
 8022170:	4618      	mov	r0, r3
 8022172:	f7ff fd31 	bl	8021bd8 <rt_list_remove>
 8022176:	68f8      	ldr	r0, [r7, #12]
 8022178:	f7ff fc1c 	bl	80219b4 <rt_schedule_insert_thread>
 802217c:	f7ff fba6 	bl	80218cc <rt_schedule>
 8022180:	bf00      	nop
 8022182:	3710      	adds	r7, #16
 8022184:	46bd      	mov	sp, r7
 8022186:	bd80      	pop	{r7, pc}
 8022188:	08025454 	stmdaeq	r2, {r2, r4, r6, sl, ip, lr}
 802218c:	08024d14 	stmdaeq	r2, {r2, r4, r8, sl, fp, lr}
 8022190:	08024e8c 	stmdaeq	r2, {r2, r3, r7, r9, sl, fp, lr}
 8022194:	08024d78 	stmdaeq	r2, {r3, r4, r5, r6, r8, sl, fp, lr}

08022198 <rt_list_init>:
 8022198:	b480      	push	{r7}
 802219a:	b083      	sub	sp, #12
 802219c:	af00      	add	r7, sp, #0
 802219e:	6078      	str	r0, [r7, #4]
 80221a0:	687b      	ldr	r3, [r7, #4]
 80221a2:	687a      	ldr	r2, [r7, #4]
 80221a4:	605a      	str	r2, [r3, #4]
 80221a6:	687b      	ldr	r3, [r7, #4]
 80221a8:	685a      	ldr	r2, [r3, #4]
 80221aa:	687b      	ldr	r3, [r7, #4]
 80221ac:	601a      	str	r2, [r3, #0]
 80221ae:	bf00      	nop
 80221b0:	370c      	adds	r7, #12
 80221b2:	46bd      	mov	sp, r7
 80221b4:	f85d 7b04 	ldr.w	r7, [sp], #4
 80221b8:	4770      	bx	lr
 80221ba:	bf00      	nop

080221bc <rt_list_insert_after>:
 80221bc:	b480      	push	{r7}
 80221be:	b083      	sub	sp, #12
 80221c0:	af00      	add	r7, sp, #0
 80221c2:	6078      	str	r0, [r7, #4]
 80221c4:	6039      	str	r1, [r7, #0]
 80221c6:	687b      	ldr	r3, [r7, #4]
 80221c8:	681b      	ldr	r3, [r3, #0]
 80221ca:	683a      	ldr	r2, [r7, #0]
 80221cc:	605a      	str	r2, [r3, #4]
 80221ce:	687b      	ldr	r3, [r7, #4]
 80221d0:	681a      	ldr	r2, [r3, #0]
 80221d2:	683b      	ldr	r3, [r7, #0]
 80221d4:	601a      	str	r2, [r3, #0]
 80221d6:	687b      	ldr	r3, [r7, #4]
 80221d8:	683a      	ldr	r2, [r7, #0]
 80221da:	601a      	str	r2, [r3, #0]
 80221dc:	683b      	ldr	r3, [r7, #0]
 80221de:	687a      	ldr	r2, [r7, #4]
 80221e0:	605a      	str	r2, [r3, #4]
 80221e2:	bf00      	nop
 80221e4:	370c      	adds	r7, #12
 80221e6:	46bd      	mov	sp, r7
 80221e8:	f85d 7b04 	ldr.w	r7, [sp], #4
 80221ec:	4770      	bx	lr
 80221ee:	bf00      	nop

080221f0 <rt_list_remove>:
 80221f0:	b480      	push	{r7}
 80221f2:	b083      	sub	sp, #12
 80221f4:	af00      	add	r7, sp, #0
 80221f6:	6078      	str	r0, [r7, #4]
 80221f8:	687b      	ldr	r3, [r7, #4]
 80221fa:	681b      	ldr	r3, [r3, #0]
 80221fc:	687a      	ldr	r2, [r7, #4]
 80221fe:	6852      	ldr	r2, [r2, #4]
 8022200:	605a      	str	r2, [r3, #4]
 8022202:	687b      	ldr	r3, [r7, #4]
 8022204:	685b      	ldr	r3, [r3, #4]
 8022206:	687a      	ldr	r2, [r7, #4]
 8022208:	6812      	ldr	r2, [r2, #0]
 802220a:	601a      	str	r2, [r3, #0]
 802220c:	687b      	ldr	r3, [r7, #4]
 802220e:	687a      	ldr	r2, [r7, #4]
 8022210:	605a      	str	r2, [r3, #4]
 8022212:	687b      	ldr	r3, [r7, #4]
 8022214:	685a      	ldr	r2, [r3, #4]
 8022216:	687b      	ldr	r3, [r7, #4]
 8022218:	601a      	str	r2, [r3, #0]
 802221a:	bf00      	nop
 802221c:	370c      	adds	r7, #12
 802221e:	46bd      	mov	sp, r7
 8022220:	f85d 7b04 	ldr.w	r7, [sp], #4
 8022224:	4770      	bx	lr
 8022226:	bf00      	nop

08022228 <rt_list_isempty>:
 8022228:	b480      	push	{r7}
 802222a:	b083      	sub	sp, #12
 802222c:	af00      	add	r7, sp, #0
 802222e:	6078      	str	r0, [r7, #4]
 8022230:	687b      	ldr	r3, [r7, #4]
 8022232:	681a      	ldr	r2, [r3, #0]
 8022234:	687b      	ldr	r3, [r7, #4]
 8022236:	429a      	cmp	r2, r3
 8022238:	bf0c      	ite	eq
 802223a:	2301      	moveq	r3, #1
 802223c:	2300      	movne	r3, #0
 802223e:	b2db      	uxtb	r3, r3
 8022240:	4618      	mov	r0, r3
 8022242:	370c      	adds	r7, #12
 8022244:	46bd      	mov	sp, r7
 8022246:	f85d 7b04 	ldr.w	r7, [sp], #4
 802224a:	4770      	bx	lr

0802224c <_rt_timer_init>:
 802224c:	b580      	push	{r7, lr}
 802224e:	b086      	sub	sp, #24
 8022250:	af00      	add	r7, sp, #0
 8022252:	60f8      	str	r0, [r7, #12]
 8022254:	60b9      	str	r1, [r7, #8]
 8022256:	607a      	str	r2, [r7, #4]
 8022258:	603b      	str	r3, [r7, #0]
 802225a:	68fb      	ldr	r3, [r7, #12]
 802225c:	f897 2020 	ldrb.w	r2, [r7, #32]
 8022260:	725a      	strb	r2, [r3, #9]
 8022262:	68fb      	ldr	r3, [r7, #12]
 8022264:	7a5b      	ldrb	r3, [r3, #9]
 8022266:	f023 0301 	bic.w	r3, r3, #1
 802226a:	b2da      	uxtb	r2, r3
 802226c:	68fb      	ldr	r3, [r7, #12]
 802226e:	725a      	strb	r2, [r3, #9]
 8022270:	68fb      	ldr	r3, [r7, #12]
 8022272:	68ba      	ldr	r2, [r7, #8]
 8022274:	61da      	str	r2, [r3, #28]
 8022276:	68fb      	ldr	r3, [r7, #12]
 8022278:	687a      	ldr	r2, [r7, #4]
 802227a:	621a      	str	r2, [r3, #32]
 802227c:	68fb      	ldr	r3, [r7, #12]
 802227e:	2200      	movs	r2, #0
 8022280:	629a      	str	r2, [r3, #40]	; 0x28
 8022282:	68fb      	ldr	r3, [r7, #12]
 8022284:	683a      	ldr	r2, [r7, #0]
 8022286:	625a      	str	r2, [r3, #36]	; 0x24
 8022288:	2300      	movs	r3, #0
 802228a:	617b      	str	r3, [r7, #20]
 802228c:	e00b      	b.n	80222a6 <_rt_timer_init+0x5a>
 802228e:	697b      	ldr	r3, [r7, #20]
 8022290:	3302      	adds	r3, #2
 8022292:	00db      	lsls	r3, r3, #3
 8022294:	68fa      	ldr	r2, [r7, #12]
 8022296:	4413      	add	r3, r2
 8022298:	3304      	adds	r3, #4
 802229a:	4618      	mov	r0, r3
 802229c:	f7ff ff7c 	bl	8022198 <rt_list_init>
 80222a0:	697b      	ldr	r3, [r7, #20]
 80222a2:	3301      	adds	r3, #1
 80222a4:	617b      	str	r3, [r7, #20]
 80222a6:	697b      	ldr	r3, [r7, #20]
 80222a8:	2b00      	cmp	r3, #0
 80222aa:	ddf0      	ble.n	802228e <_rt_timer_init+0x42>
 80222ac:	bf00      	nop
 80222ae:	3718      	adds	r7, #24
 80222b0:	46bd      	mov	sp, r7
 80222b2:	bd80      	pop	{r7, pc}

080222b4 <_rt_timer_remove>:
 80222b4:	b580      	push	{r7, lr}
 80222b6:	b084      	sub	sp, #16
 80222b8:	af00      	add	r7, sp, #0
 80222ba:	6078      	str	r0, [r7, #4]
 80222bc:	2300      	movs	r3, #0
 80222be:	60fb      	str	r3, [r7, #12]
 80222c0:	e00b      	b.n	80222da <_rt_timer_remove+0x26>
 80222c2:	68fb      	ldr	r3, [r7, #12]
 80222c4:	3302      	adds	r3, #2
 80222c6:	00db      	lsls	r3, r3, #3
 80222c8:	687a      	ldr	r2, [r7, #4]
 80222ca:	4413      	add	r3, r2
 80222cc:	3304      	adds	r3, #4
 80222ce:	4618      	mov	r0, r3
 80222d0:	f7ff ff8e 	bl	80221f0 <rt_list_remove>
 80222d4:	68fb      	ldr	r3, [r7, #12]
 80222d6:	3301      	adds	r3, #1
 80222d8:	60fb      	str	r3, [r7, #12]
 80222da:	68fb      	ldr	r3, [r7, #12]
 80222dc:	2b00      	cmp	r3, #0
 80222de:	ddf0      	ble.n	80222c2 <_rt_timer_remove+0xe>
 80222e0:	bf00      	nop
 80222e2:	3710      	adds	r7, #16
 80222e4:	46bd      	mov	sp, r7
 80222e6:	bd80      	pop	{r7, pc}

080222e8 <rt_timer_init>:
 80222e8:	b580      	push	{r7, lr}
 80222ea:	b086      	sub	sp, #24
 80222ec:	af02      	add	r7, sp, #8
 80222ee:	60f8      	str	r0, [r7, #12]
 80222f0:	60b9      	str	r1, [r7, #8]
 80222f2:	607a      	str	r2, [r7, #4]
 80222f4:	603b      	str	r3, [r7, #0]
 80222f6:	68fb      	ldr	r3, [r7, #12]
 80222f8:	2b00      	cmp	r3, #0
 80222fa:	d104      	bne.n	8022306 <rt_timer_init+0x1e>
 80222fc:	22ba      	movs	r2, #186	; 0xba
 80222fe:	490a      	ldr	r1, [pc, #40]	; (8022328 <rt_timer_init+0x40>)
 8022300:	480a      	ldr	r0, [pc, #40]	; (802232c <rt_timer_init+0x44>)
 8022302:	f7ff f8b1 	bl	8021468 <rt_assert_handler>
 8022306:	68ba      	ldr	r2, [r7, #8]
 8022308:	210a      	movs	r1, #10
 802230a:	68f8      	ldr	r0, [r7, #12]
 802230c:	f7ff f92c 	bl	8021568 <rt_object_init>
 8022310:	7f3b      	ldrb	r3, [r7, #28]
 8022312:	9300      	str	r3, [sp, #0]
 8022314:	69bb      	ldr	r3, [r7, #24]
 8022316:	683a      	ldr	r2, [r7, #0]
 8022318:	6879      	ldr	r1, [r7, #4]
 802231a:	68f8      	ldr	r0, [r7, #12]
 802231c:	f7ff ff96 	bl	802224c <_rt_timer_init>
 8022320:	bf00      	nop
 8022322:	3710      	adds	r7, #16
 8022324:	46bd      	mov	sp, r7
 8022326:	bd80      	pop	{r7, pc}
 8022328:	08025468 	stmdaeq	r2, {r3, r5, r6, sl, ip, lr}
 802232c:	08024ee8 	stmdaeq	r2, {r3, r5, r6, r7, r9, sl, fp, lr}

08022330 <rt_timer_detach>:
 8022330:	b590      	push	{r4, r7, lr}
 8022332:	b083      	sub	sp, #12
 8022334:	af00      	add	r7, sp, #0
 8022336:	6078      	str	r0, [r7, #4]
 8022338:	687b      	ldr	r3, [r7, #4]
 802233a:	2b00      	cmp	r3, #0
 802233c:	d104      	bne.n	8022348 <rt_timer_detach+0x18>
 802233e:	22cf      	movs	r2, #207	; 0xcf
 8022340:	4916      	ldr	r1, [pc, #88]	; (802239c <rt_timer_detach+0x6c>)
 8022342:	4817      	ldr	r0, [pc, #92]	; (80223a0 <rt_timer_detach+0x70>)
 8022344:	f7ff f890 	bl	8021468 <rt_assert_handler>
 8022348:	687b      	ldr	r3, [r7, #4]
 802234a:	4618      	mov	r0, r3
 802234c:	f7ff f9a6 	bl	802169c <rt_object_get_type>
 8022350:	4603      	mov	r3, r0
 8022352:	2b0a      	cmp	r3, #10
 8022354:	d004      	beq.n	8022360 <rt_timer_detach+0x30>
 8022356:	22d0      	movs	r2, #208	; 0xd0
 8022358:	4910      	ldr	r1, [pc, #64]	; (802239c <rt_timer_detach+0x6c>)
 802235a:	4812      	ldr	r0, [pc, #72]	; (80223a4 <rt_timer_detach+0x74>)
 802235c:	f7ff f884 	bl	8021468 <rt_assert_handler>
 8022360:	687b      	ldr	r3, [r7, #4]
 8022362:	4618      	mov	r0, r3
 8022364:	f7ff f97c 	bl	8021660 <rt_object_is_systemobject>
 8022368:	4603      	mov	r3, r0
 802236a:	2b00      	cmp	r3, #0
 802236c:	d104      	bne.n	8022378 <rt_timer_detach+0x48>
 802236e:	22d1      	movs	r2, #209	; 0xd1
 8022370:	490a      	ldr	r1, [pc, #40]	; (802239c <rt_timer_detach+0x6c>)
 8022372:	480d      	ldr	r0, [pc, #52]	; (80223a8 <rt_timer_detach+0x78>)
 8022374:	f7ff f878 	bl	8021468 <rt_assert_handler>
 8022378:	f7fd ff34 	bl	80201e4 <rt_hw_interrupt_disable>
 802237c:	4604      	mov	r4, r0
 802237e:	6878      	ldr	r0, [r7, #4]
 8022380:	f7ff ff98 	bl	80222b4 <_rt_timer_remove>
 8022384:	4620      	mov	r0, r4
 8022386:	f7fd ff31 	bl	80201ec <rt_hw_interrupt_enable>
 802238a:	6878      	ldr	r0, [r7, #4]
 802238c:	f7ff f944 	bl	8021618 <rt_object_detach>
 8022390:	2300      	movs	r3, #0
 8022392:	4618      	mov	r0, r3
 8022394:	370c      	adds	r7, #12
 8022396:	46bd      	mov	sp, r7
 8022398:	bd90      	pop	{r4, r7, pc}
 802239a:	bf00      	nop
 802239c:	08025478 	stmdaeq	r2, {r3, r4, r5, r6, sl, ip, lr}
 80223a0:	08024ee8 	stmdaeq	r2, {r3, r5, r6, r7, r9, sl, fp, lr}
 80223a4:	08024efc 	stmdaeq	r2, {r2, r3, r4, r5, r6, r7, r9, sl, fp, lr}
 80223a8:	08024f38 	stmdaeq	r2, {r3, r4, r5, r8, r9, sl, fp, lr}

080223ac <rt_timer_start>:
 80223ac:	b590      	push	{r4, r7, lr}
 80223ae:	b089      	sub	sp, #36	; 0x24
 80223b0:	af00      	add	r7, sp, #0
 80223b2:	6078      	str	r0, [r7, #4]
 80223b4:	687b      	ldr	r3, [r7, #4]
 80223b6:	2b00      	cmp	r3, #0
 80223b8:	d105      	bne.n	80223c6 <rt_timer_start+0x1a>
 80223ba:	f44f 7299 	mov.w	r2, #306	; 0x132
 80223be:	496e      	ldr	r1, [pc, #440]	; (8022578 <rt_timer_start+0x1cc>)
 80223c0:	486e      	ldr	r0, [pc, #440]	; (802257c <rt_timer_start+0x1d0>)
 80223c2:	f7ff f851 	bl	8021468 <rt_assert_handler>
 80223c6:	687b      	ldr	r3, [r7, #4]
 80223c8:	4618      	mov	r0, r3
 80223ca:	f7ff f967 	bl	802169c <rt_object_get_type>
 80223ce:	4603      	mov	r3, r0
 80223d0:	2b0a      	cmp	r3, #10
 80223d2:	d005      	beq.n	80223e0 <rt_timer_start+0x34>
 80223d4:	f240 1233 	movw	r2, #307	; 0x133
 80223d8:	4967      	ldr	r1, [pc, #412]	; (8022578 <rt_timer_start+0x1cc>)
 80223da:	4869      	ldr	r0, [pc, #420]	; (8022580 <rt_timer_start+0x1d4>)
 80223dc:	f7ff f844 	bl	8021468 <rt_assert_handler>
 80223e0:	f7fd ff00 	bl	80201e4 <rt_hw_interrupt_disable>
 80223e4:	4604      	mov	r4, r0
 80223e6:	6878      	ldr	r0, [r7, #4]
 80223e8:	f7ff ff64 	bl	80222b4 <_rt_timer_remove>
 80223ec:	687b      	ldr	r3, [r7, #4]
 80223ee:	7a5b      	ldrb	r3, [r3, #9]
 80223f0:	f023 0301 	bic.w	r3, r3, #1
 80223f4:	b2da      	uxtb	r2, r3
 80223f6:	687b      	ldr	r3, [r7, #4]
 80223f8:	725a      	strb	r2, [r3, #9]
 80223fa:	4620      	mov	r0, r4
 80223fc:	f7fd fef6 	bl	80201ec <rt_hw_interrupt_enable>
 8022400:	687b      	ldr	r3, [r7, #4]
 8022402:	6a5b      	ldr	r3, [r3, #36]	; 0x24
 8022404:	4a5f      	ldr	r2, [pc, #380]	; (8022584 <rt_timer_start+0x1d8>)
 8022406:	4293      	cmp	r3, r2
 8022408:	d905      	bls.n	8022416 <rt_timer_start+0x6a>
 802240a:	f240 1243 	movw	r2, #323	; 0x143
 802240e:	495a      	ldr	r1, [pc, #360]	; (8022578 <rt_timer_start+0x1cc>)
 8022410:	485d      	ldr	r0, [pc, #372]	; (8022588 <rt_timer_start+0x1dc>)
 8022412:	f7ff f829 	bl	8021468 <rt_assert_handler>
 8022416:	f7fe f90d 	bl	8020634 <rt_tick_get>
 802241a:	4602      	mov	r2, r0
 802241c:	687b      	ldr	r3, [r7, #4]
 802241e:	6a5b      	ldr	r3, [r3, #36]	; 0x24
 8022420:	441a      	add	r2, r3
 8022422:	687b      	ldr	r3, [r7, #4]
 8022424:	629a      	str	r2, [r3, #40]	; 0x28
 8022426:	f7fd fedd 	bl	80201e4 <rt_hw_interrupt_disable>
 802242a:	4604      	mov	r4, r0
 802242c:	4b57      	ldr	r3, [pc, #348]	; (802258c <rt_timer_start+0x1e0>)
 802242e:	617b      	str	r3, [r7, #20]
 8022430:	697b      	ldr	r3, [r7, #20]
 8022432:	60bb      	str	r3, [r7, #8]
 8022434:	2300      	movs	r3, #0
 8022436:	61fb      	str	r3, [r7, #28]
 8022438:	e055      	b.n	80224e6 <rt_timer_start+0x13a>
 802243a:	69fb      	ldr	r3, [r7, #28]
 802243c:	009b      	lsls	r3, r3, #2
 802243e:	f107 0220 	add.w	r2, r7, #32
 8022442:	4413      	add	r3, r2
 8022444:	f853 3c18 	ldr.w	r3, [r3, #-24]
 8022448:	681b      	ldr	r3, [r3, #0]
 802244a:	613b      	str	r3, [r7, #16]
 802244c:	69fb      	ldr	r3, [r7, #28]
 802244e:	00db      	lsls	r3, r3, #3
 8022450:	3314      	adds	r3, #20
 8022452:	425b      	negs	r3, r3
 8022454:	693a      	ldr	r2, [r7, #16]
 8022456:	4413      	add	r3, r2
 8022458:	60fb      	str	r3, [r7, #12]
 802245a:	68fb      	ldr	r3, [r7, #12]
 802245c:	6a9a      	ldr	r2, [r3, #40]	; 0x28
 802245e:	687b      	ldr	r3, [r7, #4]
 8022460:	6a9b      	ldr	r3, [r3, #40]	; 0x28
 8022462:	429a      	cmp	r2, r3
 8022464:	d008      	beq.n	8022478 <rt_timer_start+0xcc>
 8022466:	68fb      	ldr	r3, [r7, #12]
 8022468:	6a9a      	ldr	r2, [r3, #40]	; 0x28
 802246a:	687b      	ldr	r3, [r7, #4]
 802246c:	6a9b      	ldr	r3, [r3, #40]	; 0x28
 802246e:	1ad3      	subs	r3, r2, r3
 8022470:	4a44      	ldr	r2, [pc, #272]	; (8022584 <rt_timer_start+0x1d8>)
 8022472:	4293      	cmp	r3, r2
 8022474:	d91f      	bls.n	80224b6 <rt_timer_start+0x10a>
 8022476:	e000      	b.n	802247a <rt_timer_start+0xce>
 8022478:	bf00      	nop
 802247a:	69fb      	ldr	r3, [r7, #28]
 802247c:	009b      	lsls	r3, r3, #2
 802247e:	f107 0220 	add.w	r2, r7, #32
 8022482:	4413      	add	r3, r2
 8022484:	f853 3c18 	ldr.w	r3, [r3, #-24]
 8022488:	681a      	ldr	r2, [r3, #0]
 802248a:	69fb      	ldr	r3, [r7, #28]
 802248c:	009b      	lsls	r3, r3, #2
 802248e:	f107 0120 	add.w	r1, r7, #32
 8022492:	440b      	add	r3, r1
 8022494:	f843 2c18 	str.w	r2, [r3, #-24]
 8022498:	69fb      	ldr	r3, [r7, #28]
 802249a:	009b      	lsls	r3, r3, #2
 802249c:	f107 0220 	add.w	r2, r7, #32
 80224a0:	4413      	add	r3, r2
 80224a2:	f853 2c18 	ldr.w	r2, [r3, #-24]
 80224a6:	69fb      	ldr	r3, [r7, #28]
 80224a8:	00db      	lsls	r3, r3, #3
 80224aa:	6979      	ldr	r1, [r7, #20]
 80224ac:	440b      	add	r3, r1
 80224ae:	685b      	ldr	r3, [r3, #4]
 80224b0:	429a      	cmp	r2, r3
 80224b2:	d1c2      	bne.n	802243a <rt_timer_start+0x8e>
 80224b4:	e000      	b.n	80224b8 <rt_timer_start+0x10c>
 80224b6:	bf00      	nop
 80224b8:	69fb      	ldr	r3, [r7, #28]
 80224ba:	2b00      	cmp	r3, #0
 80224bc:	d010      	beq.n	80224e0 <rt_timer_start+0x134>
 80224be:	69fb      	ldr	r3, [r7, #28]
 80224c0:	1c59      	adds	r1, r3, #1
 80224c2:	69fb      	ldr	r3, [r7, #28]
 80224c4:	009b      	lsls	r3, r3, #2
 80224c6:	f107 0220 	add.w	r2, r7, #32
 80224ca:	4413      	add	r3, r2
 80224cc:	f853 3c18 	ldr.w	r3, [r3, #-24]
 80224d0:	f103 0208 	add.w	r2, r3, #8
 80224d4:	008b      	lsls	r3, r1, #2
 80224d6:	f107 0120 	add.w	r1, r7, #32
 80224da:	440b      	add	r3, r1
 80224dc:	f843 2c18 	str.w	r2, [r3, #-24]
 80224e0:	69fb      	ldr	r3, [r7, #28]
 80224e2:	3301      	adds	r3, #1
 80224e4:	61fb      	str	r3, [r7, #28]
 80224e6:	69fb      	ldr	r3, [r7, #28]
 80224e8:	2b00      	cmp	r3, #0
 80224ea:	d0d5      	beq.n	8022498 <rt_timer_start+0xec>
 80224ec:	4b28      	ldr	r3, [pc, #160]	; (8022590 <rt_timer_start+0x1e4>)
 80224ee:	681b      	ldr	r3, [r3, #0]
 80224f0:	3301      	adds	r3, #1
 80224f2:	4a27      	ldr	r2, [pc, #156]	; (8022590 <rt_timer_start+0x1e4>)
 80224f4:	6013      	str	r3, [r2, #0]
 80224f6:	4b26      	ldr	r3, [pc, #152]	; (8022590 <rt_timer_start+0x1e4>)
 80224f8:	681b      	ldr	r3, [r3, #0]
 80224fa:	61bb      	str	r3, [r7, #24]
 80224fc:	68ba      	ldr	r2, [r7, #8]
 80224fe:	687b      	ldr	r3, [r7, #4]
 8022500:	3314      	adds	r3, #20
 8022502:	4619      	mov	r1, r3
 8022504:	4610      	mov	r0, r2
 8022506:	f7ff fe59 	bl	80221bc <rt_list_insert_after>
 802250a:	2302      	movs	r3, #2
 802250c:	61fb      	str	r3, [r7, #28]
 802250e:	e01e      	b.n	802254e <rt_timer_start+0x1a2>
 8022510:	69bb      	ldr	r3, [r7, #24]
 8022512:	f003 0303 	and.w	r3, r3, #3
 8022516:	2b00      	cmp	r3, #0
 8022518:	d11d      	bne.n	8022556 <rt_timer_start+0x1aa>
 802251a:	69fb      	ldr	r3, [r7, #28]
 802251c:	f1c3 0301 	rsb	r3, r3, #1
 8022520:	009b      	lsls	r3, r3, #2
 8022522:	f107 0220 	add.w	r2, r7, #32
 8022526:	4413      	add	r3, r2
 8022528:	f853 0c18 	ldr.w	r0, [r3, #-24]
 802252c:	69fb      	ldr	r3, [r7, #28]
 802252e:	f1c3 0301 	rsb	r3, r3, #1
 8022532:	3302      	adds	r3, #2
 8022534:	00db      	lsls	r3, r3, #3
 8022536:	687a      	ldr	r2, [r7, #4]
 8022538:	4413      	add	r3, r2
 802253a:	3304      	adds	r3, #4
 802253c:	4619      	mov	r1, r3
 802253e:	f7ff fe3d 	bl	80221bc <rt_list_insert_after>
 8022542:	69bb      	ldr	r3, [r7, #24]
 8022544:	089b      	lsrs	r3, r3, #2
 8022546:	61bb      	str	r3, [r7, #24]
 8022548:	69fb      	ldr	r3, [r7, #28]
 802254a:	3301      	adds	r3, #1
 802254c:	61fb      	str	r3, [r7, #28]
 802254e:	69fb      	ldr	r3, [r7, #28]
 8022550:	2b01      	cmp	r3, #1
 8022552:	d9dd      	bls.n	8022510 <rt_timer_start+0x164>
 8022554:	e000      	b.n	8022558 <rt_timer_start+0x1ac>
 8022556:	bf00      	nop
 8022558:	687b      	ldr	r3, [r7, #4]
 802255a:	7a5b      	ldrb	r3, [r3, #9]
 802255c:	f043 0301 	orr.w	r3, r3, #1
 8022560:	b2da      	uxtb	r2, r3
 8022562:	687b      	ldr	r3, [r7, #4]
 8022564:	725a      	strb	r2, [r3, #9]
 8022566:	4620      	mov	r0, r4
 8022568:	f7fd fe40 	bl	80201ec <rt_hw_interrupt_enable>
 802256c:	2300      	movs	r3, #0
 802256e:	4618      	mov	r0, r3
 8022570:	3724      	adds	r7, #36	; 0x24
 8022572:	46bd      	mov	sp, r7
 8022574:	bd90      	pop	{r4, r7, pc}
 8022576:	bf00      	nop
 8022578:	08025488 	stmdaeq	r2, {r3, r7, sl, ip, lr}
 802257c:	08024ee8 	stmdaeq	r2, {r3, r5, r6, r7, r9, sl, fp, lr}
 8022580:	08024efc 	stmdaeq	r2, {r2, r3, r4, r5, r6, r7, r9, sl, fp, lr}
 8022584:	7ffffffe 	svcvc	0x00fffffe
 8022588:	08024f64 	stmdaeq	r2, {r2, r5, r6, r8, r9, sl, fp, lr}
 802258c:	200014a4 	andcs	r1, r0, r4, lsr #9
 8022590:	200014ac 	andcs	r1, r0, ip, lsr #9

08022594 <rt_timer_stop>:
 8022594:	b590      	push	{r4, r7, lr}
 8022596:	b083      	sub	sp, #12
 8022598:	af00      	add	r7, sp, #0
 802259a:	6078      	str	r0, [r7, #4]
 802259c:	687b      	ldr	r3, [r7, #4]
 802259e:	2b00      	cmp	r3, #0
 80225a0:	d105      	bne.n	80225ae <rt_timer_stop+0x1a>
 80225a2:	f240 12ab 	movw	r2, #427	; 0x1ab
 80225a6:	4917      	ldr	r1, [pc, #92]	; (8022604 <rt_timer_stop+0x70>)
 80225a8:	4817      	ldr	r0, [pc, #92]	; (8022608 <rt_timer_stop+0x74>)
 80225aa:	f7fe ff5d 	bl	8021468 <rt_assert_handler>
 80225ae:	687b      	ldr	r3, [r7, #4]
 80225b0:	4618      	mov	r0, r3
 80225b2:	f7ff f873 	bl	802169c <rt_object_get_type>
 80225b6:	4603      	mov	r3, r0
 80225b8:	2b0a      	cmp	r3, #10
 80225ba:	d005      	beq.n	80225c8 <rt_timer_stop+0x34>
 80225bc:	f44f 72d6 	mov.w	r2, #428	; 0x1ac
 80225c0:	4910      	ldr	r1, [pc, #64]	; (8022604 <rt_timer_stop+0x70>)
 80225c2:	4812      	ldr	r0, [pc, #72]	; (802260c <rt_timer_stop+0x78>)
 80225c4:	f7fe ff50 	bl	8021468 <rt_assert_handler>
 80225c8:	687b      	ldr	r3, [r7, #4]
 80225ca:	7a5b      	ldrb	r3, [r3, #9]
 80225cc:	f003 0301 	and.w	r3, r3, #1
 80225d0:	2b00      	cmp	r3, #0
 80225d2:	d102      	bne.n	80225da <rt_timer_stop+0x46>
 80225d4:	f04f 33ff 	mov.w	r3, #4294967295	; 0xffffffff
 80225d8:	e010      	b.n	80225fc <rt_timer_stop+0x68>
 80225da:	f7fd fe03 	bl	80201e4 <rt_hw_interrupt_disable>
 80225de:	4604      	mov	r4, r0
 80225e0:	6878      	ldr	r0, [r7, #4]
 80225e2:	f7ff fe67 	bl	80222b4 <_rt_timer_remove>
 80225e6:	4620      	mov	r0, r4
 80225e8:	f7fd fe00 	bl	80201ec <rt_hw_interrupt_enable>
 80225ec:	687b      	ldr	r3, [r7, #4]
 80225ee:	7a5b      	ldrb	r3, [r3, #9]
 80225f0:	f023 0301 	bic.w	r3, r3, #1
 80225f4:	b2da      	uxtb	r2, r3
 80225f6:	687b      	ldr	r3, [r7, #4]
 80225f8:	725a      	strb	r2, [r3, #9]
 80225fa:	2300      	movs	r3, #0
 80225fc:	4618      	mov	r0, r3
 80225fe:	370c      	adds	r7, #12
 8022600:	46bd      	mov	sp, r7
 8022602:	bd90      	pop	{r4, r7, pc}
 8022604:	08025498 	stmdaeq	r2, {r3, r4, r7, sl, ip, lr}
 8022608:	08024ee8 	stmdaeq	r2, {r3, r5, r6, r7, r9, sl, fp, lr}
 802260c:	08024efc 	stmdaeq	r2, {r2, r3, r4, r5, r6, r7, r9, sl, fp, lr}

08022610 <rt_timer_control>:
 8022610:	b580      	push	{r7, lr}
 8022612:	b084      	sub	sp, #16
 8022614:	af00      	add	r7, sp, #0
 8022616:	60f8      	str	r0, [r7, #12]
 8022618:	60b9      	str	r1, [r7, #8]
 802261a:	607a      	str	r2, [r7, #4]
 802261c:	68fb      	ldr	r3, [r7, #12]
 802261e:	2b00      	cmp	r3, #0
 8022620:	d105      	bne.n	802262e <rt_timer_control+0x1e>
 8022622:	f44f 72e7 	mov.w	r2, #462	; 0x1ce
 8022626:	491f      	ldr	r1, [pc, #124]	; (80226a4 <rt_timer_control+0x94>)
 8022628:	481f      	ldr	r0, [pc, #124]	; (80226a8 <rt_timer_control+0x98>)
 802262a:	f7fe ff1d 	bl	8021468 <rt_assert_handler>
 802262e:	68fb      	ldr	r3, [r7, #12]
 8022630:	4618      	mov	r0, r3
 8022632:	f7ff f833 	bl	802169c <rt_object_get_type>
 8022636:	4603      	mov	r3, r0
 8022638:	2b0a      	cmp	r3, #10
 802263a:	d005      	beq.n	8022648 <rt_timer_control+0x38>
 802263c:	f240 12cf 	movw	r2, #463	; 0x1cf
 8022640:	4918      	ldr	r1, [pc, #96]	; (80226a4 <rt_timer_control+0x94>)
 8022642:	481a      	ldr	r0, [pc, #104]	; (80226ac <rt_timer_control+0x9c>)
 8022644:	f7fe ff10 	bl	8021468 <rt_assert_handler>
 8022648:	68bb      	ldr	r3, [r7, #8]
 802264a:	2b03      	cmp	r3, #3
 802264c:	d824      	bhi.n	8022698 <rt_timer_control+0x88>
 802264e:	a201      	add	r2, pc, #4	; (adr r2, 8022654 <rt_timer_control+0x44>)
 8022650:	f852 f023 	ldr.w	pc, [r2, r3, lsl #2]
 8022654:	0802266f 	stmdaeq	r2, {r0, r1, r2, r3, r5, r6, r9, sl, sp}
 8022658:	08022665 	stmdaeq	r2, {r0, r2, r5, r6, r9, sl, sp}
 802265c:	08022679 	stmdaeq	r2, {r0, r3, r4, r5, r6, r9, sl, sp}
 8022660:	08022689 	stmdaeq	r2, {r0, r3, r7, r9, sl, sp}
 8022664:	68fb      	ldr	r3, [r7, #12]
 8022666:	6a5a      	ldr	r2, [r3, #36]	; 0x24
 8022668:	687b      	ldr	r3, [r7, #4]
 802266a:	601a      	str	r2, [r3, #0]
 802266c:	e014      	b.n	8022698 <rt_timer_control+0x88>
 802266e:	687b      	ldr	r3, [r7, #4]
 8022670:	681a      	ldr	r2, [r3, #0]
 8022672:	68fb      	ldr	r3, [r7, #12]
 8022674:	625a      	str	r2, [r3, #36]	; 0x24
 8022676:	e00f      	b.n	8022698 <rt_timer_control+0x88>
 8022678:	68fb      	ldr	r3, [r7, #12]
 802267a:	7a5b      	ldrb	r3, [r3, #9]
 802267c:	f023 0302 	bic.w	r3, r3, #2
 8022680:	b2da      	uxtb	r2, r3
 8022682:	68fb      	ldr	r3, [r7, #12]
 8022684:	725a      	strb	r2, [r3, #9]
 8022686:	e007      	b.n	8022698 <rt_timer_control+0x88>
 8022688:	68fb      	ldr	r3, [r7, #12]
 802268a:	7a5b      	ldrb	r3, [r3, #9]
 802268c:	f043 0302 	orr.w	r3, r3, #2
 8022690:	b2da      	uxtb	r2, r3
 8022692:	68fb      	ldr	r3, [r7, #12]
 8022694:	725a      	strb	r2, [r3, #9]
 8022696:	bf00      	nop
 8022698:	2300      	movs	r3, #0
 802269a:	4618      	mov	r0, r3
 802269c:	3710      	adds	r7, #16
 802269e:	46bd      	mov	sp, r7
 80226a0:	bd80      	pop	{r7, pc}
 80226a2:	bf00      	nop
 80226a4:	080254a8 	stmdaeq	r2, {r3, r5, r7, sl, ip, lr}
 80226a8:	08024ee8 	stmdaeq	r2, {r3, r5, r6, r7, r9, sl, fp, lr}
 80226ac:	08024efc 	stmdaeq	r2, {r2, r3, r4, r5, r6, r7, r9, sl, fp, lr}

080226b0 <rt_timer_check>:
 80226b0:	b590      	push	{r4, r7, lr}
 80226b2:	b083      	sub	sp, #12
 80226b4:	af00      	add	r7, sp, #0
 80226b6:	482a      	ldr	r0, [pc, #168]	; (8022760 <rt_timer_check+0xb0>)
 80226b8:	f7fe fe7e 	bl	80213b8 <rt_kprintf>
 80226bc:	f7fd ffba 	bl	8020634 <rt_tick_get>
 80226c0:	6078      	str	r0, [r7, #4]
 80226c2:	f7fd fd8f 	bl	80201e4 <rt_hw_interrupt_disable>
 80226c6:	4604      	mov	r4, r0
 80226c8:	e038      	b.n	802273c <rt_timer_check+0x8c>
 80226ca:	4b26      	ldr	r3, [pc, #152]	; (8022764 <rt_timer_check+0xb4>)
 80226cc:	681b      	ldr	r3, [r3, #0]
 80226ce:	3b14      	subs	r3, #20
 80226d0:	603b      	str	r3, [r7, #0]
 80226d2:	683b      	ldr	r3, [r7, #0]
 80226d4:	6a9b      	ldr	r3, [r3, #40]	; 0x28
 80226d6:	687a      	ldr	r2, [r7, #4]
 80226d8:	1ad3      	subs	r3, r2, r3
 80226da:	4a23      	ldr	r2, [pc, #140]	; (8022768 <rt_timer_check+0xb8>)
 80226dc:	4293      	cmp	r3, r2
 80226de:	d834      	bhi.n	802274a <rt_timer_check+0x9a>
 80226e0:	6838      	ldr	r0, [r7, #0]
 80226e2:	f7ff fde7 	bl	80222b4 <_rt_timer_remove>
 80226e6:	683b      	ldr	r3, [r7, #0]
 80226e8:	69db      	ldr	r3, [r3, #28]
 80226ea:	683a      	ldr	r2, [r7, #0]
 80226ec:	6a12      	ldr	r2, [r2, #32]
 80226ee:	4610      	mov	r0, r2
 80226f0:	4798      	blx	r3
 80226f2:	f7fd ff9f 	bl	8020634 <rt_tick_get>
 80226f6:	6078      	str	r0, [r7, #4]
 80226f8:	6879      	ldr	r1, [r7, #4]
 80226fa:	481c      	ldr	r0, [pc, #112]	; (802276c <rt_timer_check+0xbc>)
 80226fc:	f7fe fe5c 	bl	80213b8 <rt_kprintf>
 8022700:	683b      	ldr	r3, [r7, #0]
 8022702:	7a5b      	ldrb	r3, [r3, #9]
 8022704:	f003 0302 	and.w	r3, r3, #2
 8022708:	2b00      	cmp	r3, #0
 802270a:	d010      	beq.n	802272e <rt_timer_check+0x7e>
 802270c:	683b      	ldr	r3, [r7, #0]
 802270e:	7a5b      	ldrb	r3, [r3, #9]
 8022710:	f003 0301 	and.w	r3, r3, #1
 8022714:	2b00      	cmp	r3, #0
 8022716:	d00a      	beq.n	802272e <rt_timer_check+0x7e>
 8022718:	683b      	ldr	r3, [r7, #0]
 802271a:	7a5b      	ldrb	r3, [r3, #9]
 802271c:	f023 0301 	bic.w	r3, r3, #1
 8022720:	b2da      	uxtb	r2, r3
 8022722:	683b      	ldr	r3, [r7, #0]
 8022724:	725a      	strb	r2, [r3, #9]
 8022726:	6838      	ldr	r0, [r7, #0]
 8022728:	f7ff fe40 	bl	80223ac <rt_timer_start>
 802272c:	e006      	b.n	802273c <rt_timer_check+0x8c>
 802272e:	683b      	ldr	r3, [r7, #0]
 8022730:	7a5b      	ldrb	r3, [r3, #9]
 8022732:	f023 0301 	bic.w	r3, r3, #1
 8022736:	b2da      	uxtb	r2, r3
 8022738:	683b      	ldr	r3, [r7, #0]
 802273a:	725a      	strb	r2, [r3, #9]
 802273c:	4809      	ldr	r0, [pc, #36]	; (8022764 <rt_timer_check+0xb4>)
 802273e:	f7ff fd73 	bl	8022228 <rt_list_isempty>
 8022742:	4603      	mov	r3, r0
 8022744:	2b00      	cmp	r3, #0
 8022746:	d0c0      	beq.n	80226ca <rt_timer_check+0x1a>
 8022748:	e000      	b.n	802274c <rt_timer_check+0x9c>
 802274a:	bf00      	nop
 802274c:	4620      	mov	r0, r4
 802274e:	f7fd fd4d 	bl	80201ec <rt_hw_interrupt_enable>
 8022752:	4807      	ldr	r0, [pc, #28]	; (8022770 <rt_timer_check+0xc0>)
 8022754:	f7fe fe30 	bl	80213b8 <rt_kprintf>
 8022758:	bf00      	nop
 802275a:	370c      	adds	r7, #12
 802275c:	46bd      	mov	sp, r7
 802275e:	bd90      	pop	{r4, r7, pc}
 8022760:	08024f88 	stmdaeq	r2, {r3, r7, r8, r9, sl, fp, lr}
 8022764:	200014a4 	andcs	r1, r0, r4, lsr #9
 8022768:	7ffffffe 	svcvc	0x00fffffe
 802276c:	08024f9c 	stmdaeq	r2, {r2, r3, r4, r7, r8, r9, sl, fp, lr}
 8022770:	08024fb0 	stmdaeq	r2, {r4, r5, r7, r8, r9, sl, fp, lr}

08022774 <rt_system_timer_init>:
 8022774:	b580      	push	{r7, lr}
 8022776:	b082      	sub	sp, #8
 8022778:	af00      	add	r7, sp, #0
 802277a:	2300      	movs	r3, #0
 802277c:	607b      	str	r3, [r7, #4]
 802277e:	e009      	b.n	8022794 <rt_system_timer_init+0x20>
 8022780:	687b      	ldr	r3, [r7, #4]
 8022782:	00db      	lsls	r3, r3, #3
 8022784:	4a07      	ldr	r2, [pc, #28]	; (80227a4 <rt_system_timer_init+0x30>)
 8022786:	4413      	add	r3, r2
 8022788:	4618      	mov	r0, r3
 802278a:	f7ff fd05 	bl	8022198 <rt_list_init>
 802278e:	687b      	ldr	r3, [r7, #4]
 8022790:	3301      	adds	r3, #1
 8022792:	607b      	str	r3, [r7, #4]
 8022794:	687b      	ldr	r3, [r7, #4]
 8022796:	2b00      	cmp	r3, #0
 8022798:	d0f2      	beq.n	8022780 <rt_system_timer_init+0xc>
 802279a:	bf00      	nop
 802279c:	3708      	adds	r7, #8
 802279e:	46bd      	mov	sp, r7
 80227a0:	bd80      	pop	{r7, pc}
 80227a2:	bf00      	nop
 80227a4:	200014a4 	andcs	r1, r0, r4, lsr #9

080227a8 <rt_system_timer_thread_init>:
 80227a8:	b480      	push	{r7}
 80227aa:	af00      	add	r7, sp, #0
 80227ac:	bf00      	nop
 80227ae:	46bd      	mov	sp, r7
 80227b0:	f85d 7b04 	ldr.w	r7, [sp], #4
 80227b4:	4770      	bx	lr
 80227b6:	bf00      	nop

080227b8 <rt_hw_stack_init>:
 80227b8:	b480      	push	{r7}
 80227ba:	b089      	sub	sp, #36	; 0x24
 80227bc:	af00      	add	r7, sp, #0
 80227be:	60f8      	str	r0, [r7, #12]
 80227c0:	60b9      	str	r1, [r7, #8]
 80227c2:	607a      	str	r2, [r7, #4]
 80227c4:	603b      	str	r3, [r7, #0]
 80227c6:	687b      	ldr	r3, [r7, #4]
 80227c8:	3304      	adds	r3, #4
 80227ca:	61bb      	str	r3, [r7, #24]
 80227cc:	69bb      	ldr	r3, [r7, #24]
 80227ce:	f023 0307 	bic.w	r3, r3, #7
 80227d2:	61bb      	str	r3, [r7, #24]
 80227d4:	69bb      	ldr	r3, [r7, #24]
 80227d6:	3b44      	subs	r3, #68	; 0x44
 80227d8:	61bb      	str	r3, [r7, #24]
 80227da:	69bb      	ldr	r3, [r7, #24]
 80227dc:	617b      	str	r3, [r7, #20]
 80227de:	2300      	movs	r3, #0
 80227e0:	61fb      	str	r3, [r7, #28]
 80227e2:	e008      	b.n	80227f6 <rt_hw_stack_init+0x3e>
 80227e4:	69fb      	ldr	r3, [r7, #28]
 80227e6:	009b      	lsls	r3, r3, #2
 80227e8:	697a      	ldr	r2, [r7, #20]
 80227ea:	4413      	add	r3, r2
 80227ec:	4a15      	ldr	r2, [pc, #84]	; (8022844 <rt_hw_stack_init+0x8c>)
 80227ee:	601a      	str	r2, [r3, #0]
 80227f0:	69fb      	ldr	r3, [r7, #28]
 80227f2:	3301      	adds	r3, #1
 80227f4:	61fb      	str	r3, [r7, #28]
 80227f6:	69fb      	ldr	r3, [r7, #28]
 80227f8:	2b10      	cmp	r3, #16
 80227fa:	d9f3      	bls.n	80227e4 <rt_hw_stack_init+0x2c>
 80227fc:	68ba      	ldr	r2, [r7, #8]
 80227fe:	697b      	ldr	r3, [r7, #20]
 8022800:	625a      	str	r2, [r3, #36]	; 0x24
 8022802:	697b      	ldr	r3, [r7, #20]
 8022804:	2200      	movs	r2, #0
 8022806:	629a      	str	r2, [r3, #40]	; 0x28
 8022808:	697b      	ldr	r3, [r7, #20]
 802280a:	2200      	movs	r2, #0
 802280c:	62da      	str	r2, [r3, #44]	; 0x2c
 802280e:	697b      	ldr	r3, [r7, #20]
 8022810:	2200      	movs	r2, #0
 8022812:	631a      	str	r2, [r3, #48]	; 0x30
 8022814:	697b      	ldr	r3, [r7, #20]
 8022816:	2200      	movs	r2, #0
 8022818:	635a      	str	r2, [r3, #52]	; 0x34
 802281a:	683a      	ldr	r2, [r7, #0]
 802281c:	697b      	ldr	r3, [r7, #20]
 802281e:	639a      	str	r2, [r3, #56]	; 0x38
 8022820:	68fa      	ldr	r2, [r7, #12]
 8022822:	697b      	ldr	r3, [r7, #20]
 8022824:	63da      	str	r2, [r3, #60]	; 0x3c
 8022826:	697b      	ldr	r3, [r7, #20]
 8022828:	f04f 7280 	mov.w	r2, #16777216	; 0x1000000
 802282c:	641a      	str	r2, [r3, #64]	; 0x40
 802282e:	697b      	ldr	r3, [r7, #20]
 8022830:	2200      	movs	r2, #0
 8022832:	601a      	str	r2, [r3, #0]
 8022834:	69bb      	ldr	r3, [r7, #24]
 8022836:	4618      	mov	r0, r3
 8022838:	3724      	adds	r7, #36	; 0x24
 802283a:	46bd      	mov	sp, r7
 802283c:	f85d 7b04 	ldr.w	r7, [sp], #4
 8022840:	4770      	bx	lr
 8022842:	bf00      	nop
 8022844:	deadbeef 	cdple	14, 10, cr11, cr13, cr15, {7}

08022848 <rt_hw_hard_fault_exception>:
 8022848:	b580      	push	{r7, lr}
 802284a:	b086      	sub	sp, #24
 802284c:	af00      	add	r7, sp, #0
 802284e:	6078      	str	r0, [r7, #4]
 8022850:	687b      	ldr	r3, [r7, #4]
 8022852:	3328      	adds	r3, #40	; 0x28
 8022854:	617b      	str	r3, [r7, #20]
 8022856:	687b      	ldr	r3, [r7, #4]
 8022858:	3304      	adds	r3, #4
 802285a:	613b      	str	r3, [r7, #16]
 802285c:	4b45      	ldr	r3, [pc, #276]	; (8022974 <rt_hw_hard_fault_exception+0x12c>)
 802285e:	681b      	ldr	r3, [r3, #0]
 8022860:	2b00      	cmp	r3, #0
 8022862:	d007      	beq.n	8022874 <rt_hw_hard_fault_exception+0x2c>
 8022864:	4b43      	ldr	r3, [pc, #268]	; (8022974 <rt_hw_hard_fault_exception+0x12c>)
 8022866:	681b      	ldr	r3, [r3, #0]
 8022868:	6978      	ldr	r0, [r7, #20]
 802286a:	4798      	blx	r3
 802286c:	60f8      	str	r0, [r7, #12]
 802286e:	68fb      	ldr	r3, [r7, #12]
 8022870:	2b00      	cmp	r3, #0
 8022872:	d07a      	beq.n	802296a <rt_hw_hard_fault_exception+0x122>
 8022874:	693b      	ldr	r3, [r7, #16]
 8022876:	6c1b      	ldr	r3, [r3, #64]	; 0x40
 8022878:	4619      	mov	r1, r3
 802287a:	483f      	ldr	r0, [pc, #252]	; (8022978 <rt_hw_hard_fault_exception+0x130>)
 802287c:	f7fe fd9c 	bl	80213b8 <rt_kprintf>
 8022880:	693b      	ldr	r3, [r7, #16]
 8022882:	6a5b      	ldr	r3, [r3, #36]	; 0x24
 8022884:	4619      	mov	r1, r3
 8022886:	483d      	ldr	r0, [pc, #244]	; (802297c <rt_hw_hard_fault_exception+0x134>)
 8022888:	f7fe fd96 	bl	80213b8 <rt_kprintf>
 802288c:	693b      	ldr	r3, [r7, #16]
 802288e:	6a9b      	ldr	r3, [r3, #40]	; 0x28
 8022890:	4619      	mov	r1, r3
 8022892:	483b      	ldr	r0, [pc, #236]	; (8022980 <rt_hw_hard_fault_exception+0x138>)
 8022894:	f7fe fd90 	bl	80213b8 <rt_kprintf>
 8022898:	693b      	ldr	r3, [r7, #16]
 802289a:	6adb      	ldr	r3, [r3, #44]	; 0x2c
 802289c:	4619      	mov	r1, r3
 802289e:	4839      	ldr	r0, [pc, #228]	; (8022984 <rt_hw_hard_fault_exception+0x13c>)
 80228a0:	f7fe fd8a 	bl	80213b8 <rt_kprintf>
 80228a4:	693b      	ldr	r3, [r7, #16]
 80228a6:	6b1b      	ldr	r3, [r3, #48]	; 0x30
 80228a8:	4619      	mov	r1, r3
 80228aa:	4837      	ldr	r0, [pc, #220]	; (8022988 <rt_hw_hard_fault_exception+0x140>)
 80228ac:	f7fe fd84 	bl	80213b8 <rt_kprintf>
 80228b0:	693b      	ldr	r3, [r7, #16]
 80228b2:	685b      	ldr	r3, [r3, #4]
 80228b4:	4619      	mov	r1, r3
 80228b6:	4835      	ldr	r0, [pc, #212]	; (802298c <rt_hw_hard_fault_exception+0x144>)
 80228b8:	f7fe fd7e 	bl	80213b8 <rt_kprintf>
 80228bc:	693b      	ldr	r3, [r7, #16]
 80228be:	689b      	ldr	r3, [r3, #8]
 80228c0:	4619      	mov	r1, r3
 80228c2:	4833      	ldr	r0, [pc, #204]	; (8022990 <rt_hw_hard_fault_exception+0x148>)
 80228c4:	f7fe fd78 	bl	80213b8 <rt_kprintf>
 80228c8:	693b      	ldr	r3, [r7, #16]
 80228ca:	68db      	ldr	r3, [r3, #12]
 80228cc:	4619      	mov	r1, r3
 80228ce:	4831      	ldr	r0, [pc, #196]	; (8022994 <rt_hw_hard_fault_exception+0x14c>)
 80228d0:	f7fe fd72 	bl	80213b8 <rt_kprintf>
 80228d4:	693b      	ldr	r3, [r7, #16]
 80228d6:	691b      	ldr	r3, [r3, #16]
 80228d8:	4619      	mov	r1, r3
 80228da:	482f      	ldr	r0, [pc, #188]	; (8022998 <rt_hw_hard_fault_exception+0x150>)
 80228dc:	f7fe fd6c 	bl	80213b8 <rt_kprintf>
 80228e0:	693b      	ldr	r3, [r7, #16]
 80228e2:	695b      	ldr	r3, [r3, #20]
 80228e4:	4619      	mov	r1, r3
 80228e6:	482d      	ldr	r0, [pc, #180]	; (802299c <rt_hw_hard_fault_exception+0x154>)
 80228e8:	f7fe fd66 	bl	80213b8 <rt_kprintf>
 80228ec:	693b      	ldr	r3, [r7, #16]
 80228ee:	699b      	ldr	r3, [r3, #24]
 80228f0:	4619      	mov	r1, r3
 80228f2:	482b      	ldr	r0, [pc, #172]	; (80229a0 <rt_hw_hard_fault_exception+0x158>)
 80228f4:	f7fe fd60 	bl	80213b8 <rt_kprintf>
 80228f8:	693b      	ldr	r3, [r7, #16]
 80228fa:	69db      	ldr	r3, [r3, #28]
 80228fc:	4619      	mov	r1, r3
 80228fe:	4829      	ldr	r0, [pc, #164]	; (80229a4 <rt_hw_hard_fault_exception+0x15c>)
 8022900:	f7fe fd5a 	bl	80213b8 <rt_kprintf>
 8022904:	693b      	ldr	r3, [r7, #16]
 8022906:	6a1b      	ldr	r3, [r3, #32]
 8022908:	4619      	mov	r1, r3
 802290a:	4827      	ldr	r0, [pc, #156]	; (80229a8 <rt_hw_hard_fault_exception+0x160>)
 802290c:	f7fe fd54 	bl	80213b8 <rt_kprintf>
 8022910:	693b      	ldr	r3, [r7, #16]
 8022912:	6b5b      	ldr	r3, [r3, #52]	; 0x34
 8022914:	4619      	mov	r1, r3
 8022916:	4825      	ldr	r0, [pc, #148]	; (80229ac <rt_hw_hard_fault_exception+0x164>)
 8022918:	f7fe fd4e 	bl	80213b8 <rt_kprintf>
 802291c:	693b      	ldr	r3, [r7, #16]
 802291e:	6b9b      	ldr	r3, [r3, #56]	; 0x38
 8022920:	4619      	mov	r1, r3
 8022922:	4823      	ldr	r0, [pc, #140]	; (80229b0 <rt_hw_hard_fault_exception+0x168>)
 8022924:	f7fe fd48 	bl	80213b8 <rt_kprintf>
 8022928:	693b      	ldr	r3, [r7, #16]
 802292a:	6bdb      	ldr	r3, [r3, #60]	; 0x3c
 802292c:	4619      	mov	r1, r3
 802292e:	4821      	ldr	r0, [pc, #132]	; (80229b4 <rt_hw_hard_fault_exception+0x16c>)
 8022930:	f7fe fd42 	bl	80213b8 <rt_kprintf>
 8022934:	687b      	ldr	r3, [r7, #4]
 8022936:	681b      	ldr	r3, [r3, #0]
 8022938:	f003 0304 	and.w	r3, r3, #4
 802293c:	2b00      	cmp	r3, #0
 802293e:	d007      	beq.n	8022950 <rt_hw_hard_fault_exception+0x108>
 8022940:	f7ff fa44 	bl	8021dcc <rt_thread_self>
 8022944:	4603      	mov	r3, r0
 8022946:	4619      	mov	r1, r3
 8022948:	481b      	ldr	r0, [pc, #108]	; (80229b8 <rt_hw_hard_fault_exception+0x170>)
 802294a:	f7fe fd35 	bl	80213b8 <rt_kprintf>
 802294e:	e002      	b.n	8022956 <rt_hw_hard_fault_exception+0x10e>
 8022950:	481a      	ldr	r0, [pc, #104]	; (80229bc <rt_hw_hard_fault_exception+0x174>)
 8022952:	f7fe fd31 	bl	80213b8 <rt_kprintf>
 8022956:	687b      	ldr	r3, [r7, #4]
 8022958:	681b      	ldr	r3, [r3, #0]
 802295a:	f003 0310 	and.w	r3, r3, #16
 802295e:	2b00      	cmp	r3, #0
 8022960:	d102      	bne.n	8022968 <rt_hw_hard_fault_exception+0x120>
 8022962:	4817      	ldr	r0, [pc, #92]	; (80229c0 <rt_hw_hard_fault_exception+0x178>)
 8022964:	f7fe fd28 	bl	80213b8 <rt_kprintf>
 8022968:	e7fe      	b.n	8022968 <rt_hw_hard_fault_exception+0x120>
 802296a:	bf00      	nop
 802296c:	3718      	adds	r7, #24
 802296e:	46bd      	mov	sp, r7
 8022970:	bd80      	pop	{r7, pc}
 8022972:	bf00      	nop
 8022974:	200014b0 			; <UNDEFINED> instruction: 0x200014b0
 8022978:	08024fc4 	stmdaeq	r2, {r2, r6, r7, r8, r9, sl, fp, lr}
 802297c:	08024fd4 	stmdaeq	r2, {r2, r4, r6, r7, r8, r9, sl, fp, lr}
 8022980:	08024fe4 	stmdaeq	r2, {r2, r5, r6, r7, r8, r9, sl, fp, lr}
 8022984:	08024ff4 	stmdaeq	r2, {r2, r4, r5, r6, r7, r8, r9, sl, fp, lr}
 8022988:	08025004 	stmdaeq	r2, {r2, ip, lr}
 802298c:	08025014 	stmdaeq	r2, {r2, r4, ip, lr}
 8022990:	08025024 	stmdaeq	r2, {r2, r5, ip, lr}
 8022994:	08025034 	stmdaeq	r2, {r2, r4, r5, ip, lr}
 8022998:	08025044 	stmdaeq	r2, {r2, r6, ip, lr}
 802299c:	08025054 	stmdaeq	r2, {r2, r4, r6, ip, lr}
 80229a0:	08025064 	stmdaeq	r2, {r2, r5, r6, ip, lr}
 80229a4:	08025074 	stmdaeq	r2, {r2, r4, r5, r6, ip, lr}
 80229a8:	08025084 	stmdaeq	r2, {r2, r7, ip, lr}
 80229ac:	08025094 	stmdaeq	r2, {r2, r4, r7, ip, lr}
 80229b0:	080250a4 	stmdaeq	r2, {r2, r5, r7, ip, lr}
 80229b4:	080250b4 	stmdaeq	r2, {r2, r4, r5, r7, ip, lr}
 80229b8:	080250c4 	stmdaeq	r2, {r2, r6, r7, ip, lr}
 80229bc:	080250e4 	stmdaeq	r2, {r2, r5, r6, r7, ip, lr}
 80229c0:	08025100 	stmdaeq	r2, {r8, ip, lr}

080229c4 <HAL_Init>:
 80229c4:	b580      	push	{r7, lr}
 80229c6:	af00      	add	r7, sp, #0
 80229c8:	4a0e      	ldr	r2, [pc, #56]	; (8022a04 <HAL_Init+0x40>)
 80229ca:	4b0e      	ldr	r3, [pc, #56]	; (8022a04 <HAL_Init+0x40>)
 80229cc:	681b      	ldr	r3, [r3, #0]
 80229ce:	f443 7300 	orr.w	r3, r3, #512	; 0x200
 80229d2:	6013      	str	r3, [r2, #0]
 80229d4:	4a0b      	ldr	r2, [pc, #44]	; (8022a04 <HAL_Init+0x40>)
 80229d6:	4b0b      	ldr	r3, [pc, #44]	; (8022a04 <HAL_Init+0x40>)
 80229d8:	681b      	ldr	r3, [r3, #0]
 80229da:	f443 6380 	orr.w	r3, r3, #1024	; 0x400
 80229de:	6013      	str	r3, [r2, #0]
 80229e0:	4a08      	ldr	r2, [pc, #32]	; (8022a04 <HAL_Init+0x40>)
 80229e2:	4b08      	ldr	r3, [pc, #32]	; (8022a04 <HAL_Init+0x40>)
 80229e4:	681b      	ldr	r3, [r3, #0]
 80229e6:	f443 7380 	orr.w	r3, r3, #256	; 0x100
 80229ea:	6013      	str	r3, [r2, #0]
 80229ec:	2003      	movs	r0, #3
 80229ee:	f000 f8d7 	bl	8022ba0 <HAL_NVIC_SetPriorityGrouping>
 80229f2:	2000      	movs	r0, #0
 80229f4:	f001 fb4e 	bl	8024094 <HAL_InitTick>
 80229f8:	f000 f806 	bl	8022a08 <HAL_MspInit>
 80229fc:	2300      	movs	r3, #0
 80229fe:	4618      	mov	r0, r3
 8022a00:	bd80      	pop	{r7, pc}
 8022a02:	bf00      	nop
 8022a04:	40023c00 	andmi	r3, r2, r0, lsl #24

08022a08 <HAL_MspInit>:
 8022a08:	b480      	push	{r7}
 8022a0a:	af00      	add	r7, sp, #0
 8022a0c:	bf00      	nop
 8022a0e:	46bd      	mov	sp, r7
 8022a10:	f85d 7b04 	ldr.w	r7, [sp], #4
 8022a14:	4770      	bx	lr
 8022a16:	bf00      	nop

08022a18 <HAL_IncTick>:
 8022a18:	b480      	push	{r7}
 8022a1a:	af00      	add	r7, sp, #0
 8022a1c:	4b06      	ldr	r3, [pc, #24]	; (8022a38 <HAL_IncTick+0x20>)
 8022a1e:	781b      	ldrb	r3, [r3, #0]
 8022a20:	461a      	mov	r2, r3
 8022a22:	4b06      	ldr	r3, [pc, #24]	; (8022a3c <HAL_IncTick+0x24>)
 8022a24:	681b      	ldr	r3, [r3, #0]
 8022a26:	4413      	add	r3, r2
 8022a28:	4a04      	ldr	r2, [pc, #16]	; (8022a3c <HAL_IncTick+0x24>)
 8022a2a:	6013      	str	r3, [r2, #0]
 8022a2c:	bf00      	nop
 8022a2e:	46bd      	mov	sp, r7
 8022a30:	f85d 7b04 	ldr.w	r7, [sp], #4
 8022a34:	4770      	bx	lr
 8022a36:	bf00      	nop
 8022a38:	20000050 	andcs	r0, r0, r0, asr r0
 8022a3c:	20001698 	mulcs	r0, r8, r6

08022a40 <__NVIC_SetPriorityGrouping>:
 8022a40:	b480      	push	{r7}
 8022a42:	b085      	sub	sp, #20
 8022a44:	af00      	add	r7, sp, #0
 8022a46:	6078      	str	r0, [r7, #4]
 8022a48:	687b      	ldr	r3, [r7, #4]
 8022a4a:	f003 0307 	and.w	r3, r3, #7
 8022a4e:	60fb      	str	r3, [r7, #12]
 8022a50:	4b0c      	ldr	r3, [pc, #48]	; (8022a84 <__NVIC_SetPriorityGrouping+0x44>)
 8022a52:	68db      	ldr	r3, [r3, #12]
 8022a54:	60bb      	str	r3, [r7, #8]
 8022a56:	68ba      	ldr	r2, [r7, #8]
 8022a58:	f64f 03ff 	movw	r3, #63743	; 0xf8ff
 8022a5c:	4013      	ands	r3, r2
 8022a5e:	60bb      	str	r3, [r7, #8]
 8022a60:	68fb      	ldr	r3, [r7, #12]
 8022a62:	021a      	lsls	r2, r3, #8
 8022a64:	68bb      	ldr	r3, [r7, #8]
 8022a66:	4313      	orrs	r3, r2
 8022a68:	f043 63bf 	orr.w	r3, r3, #100139008	; 0x5f80000
 8022a6c:	f443 3300 	orr.w	r3, r3, #131072	; 0x20000
 8022a70:	60bb      	str	r3, [r7, #8]
 8022a72:	4a04      	ldr	r2, [pc, #16]	; (8022a84 <__NVIC_SetPriorityGrouping+0x44>)
 8022a74:	68bb      	ldr	r3, [r7, #8]
 8022a76:	60d3      	str	r3, [r2, #12]
 8022a78:	bf00      	nop
 8022a7a:	3714      	adds	r7, #20
 8022a7c:	46bd      	mov	sp, r7
 8022a7e:	f85d 7b04 	ldr.w	r7, [sp], #4
 8022a82:	4770      	bx	lr
 8022a84:	e000ed00 	and	lr, r0, r0, lsl #26

08022a88 <__NVIC_GetPriorityGrouping>:
 8022a88:	b480      	push	{r7}
 8022a8a:	af00      	add	r7, sp, #0
 8022a8c:	4b04      	ldr	r3, [pc, #16]	; (8022aa0 <__NVIC_GetPriorityGrouping+0x18>)
 8022a8e:	68db      	ldr	r3, [r3, #12]
 8022a90:	f403 63e0 	and.w	r3, r3, #1792	; 0x700
 8022a94:	0a1b      	lsrs	r3, r3, #8
 8022a96:	4618      	mov	r0, r3
 8022a98:	46bd      	mov	sp, r7
 8022a9a:	f85d 7b04 	ldr.w	r7, [sp], #4
 8022a9e:	4770      	bx	lr
 8022aa0:	e000ed00 	and	lr, r0, r0, lsl #26

08022aa4 <__NVIC_SetPriority>:
 8022aa4:	b480      	push	{r7}
 8022aa6:	b083      	sub	sp, #12
 8022aa8:	af00      	add	r7, sp, #0
 8022aaa:	4603      	mov	r3, r0
 8022aac:	6039      	str	r1, [r7, #0]
 8022aae:	71fb      	strb	r3, [r7, #7]
 8022ab0:	f997 3007 	ldrsb.w	r3, [r7, #7]
 8022ab4:	2b00      	cmp	r3, #0
 8022ab6:	db0a      	blt.n	8022ace <__NVIC_SetPriority+0x2a>
 8022ab8:	490d      	ldr	r1, [pc, #52]	; (8022af0 <__NVIC_SetPriority+0x4c>)
 8022aba:	f997 3007 	ldrsb.w	r3, [r7, #7]
 8022abe:	683a      	ldr	r2, [r7, #0]
 8022ac0:	b2d2      	uxtb	r2, r2
 8022ac2:	0112      	lsls	r2, r2, #4
 8022ac4:	b2d2      	uxtb	r2, r2
 8022ac6:	440b      	add	r3, r1
 8022ac8:	f883 2300 	strb.w	r2, [r3, #768]	; 0x300
 8022acc:	e00a      	b.n	8022ae4 <__NVIC_SetPriority+0x40>
 8022ace:	4909      	ldr	r1, [pc, #36]	; (8022af4 <__NVIC_SetPriority+0x50>)
 8022ad0:	79fb      	ldrb	r3, [r7, #7]
 8022ad2:	f003 030f 	and.w	r3, r3, #15
 8022ad6:	3b04      	subs	r3, #4
 8022ad8:	683a      	ldr	r2, [r7, #0]
 8022ada:	b2d2      	uxtb	r2, r2
 8022adc:	0112      	lsls	r2, r2, #4
 8022ade:	b2d2      	uxtb	r2, r2
 8022ae0:	440b      	add	r3, r1
 8022ae2:	761a      	strb	r2, [r3, #24]
 8022ae4:	bf00      	nop
 8022ae6:	370c      	adds	r7, #12
 8022ae8:	46bd      	mov	sp, r7
 8022aea:	f85d 7b04 	ldr.w	r7, [sp], #4
 8022aee:	4770      	bx	lr
 8022af0:	e000e100 	and	lr, r0, r0, lsl #2
 8022af4:	e000ed00 	and	lr, r0, r0, lsl #26

08022af8 <NVIC_EncodePriority>:
 8022af8:	b480      	push	{r7}
 8022afa:	b089      	sub	sp, #36	; 0x24
 8022afc:	af00      	add	r7, sp, #0
 8022afe:	60f8      	str	r0, [r7, #12]
 8022b00:	60b9      	str	r1, [r7, #8]
 8022b02:	607a      	str	r2, [r7, #4]
 8022b04:	68fb      	ldr	r3, [r7, #12]
 8022b06:	f003 0307 	and.w	r3, r3, #7
 8022b0a:	61fb      	str	r3, [r7, #28]
 8022b0c:	69fb      	ldr	r3, [r7, #28]
 8022b0e:	f1c3 0307 	rsb	r3, r3, #7
 8022b12:	2b04      	cmp	r3, #4
 8022b14:	bf28      	it	cs
 8022b16:	2304      	movcs	r3, #4
 8022b18:	61bb      	str	r3, [r7, #24]
 8022b1a:	69fb      	ldr	r3, [r7, #28]
 8022b1c:	3304      	adds	r3, #4
 8022b1e:	2b06      	cmp	r3, #6
 8022b20:	d902      	bls.n	8022b28 <NVIC_EncodePriority+0x30>
 8022b22:	69fb      	ldr	r3, [r7, #28]
 8022b24:	3b03      	subs	r3, #3
 8022b26:	e000      	b.n	8022b2a <NVIC_EncodePriority+0x32>
 8022b28:	2300      	movs	r3, #0
 8022b2a:	617b      	str	r3, [r7, #20]
 8022b2c:	2201      	movs	r2, #1
 8022b2e:	69bb      	ldr	r3, [r7, #24]
 8022b30:	fa02 f303 	lsl.w	r3, r2, r3
 8022b34:	1e5a      	subs	r2, r3, #1
 8022b36:	68bb      	ldr	r3, [r7, #8]
 8022b38:	401a      	ands	r2, r3
 8022b3a:	697b      	ldr	r3, [r7, #20]
 8022b3c:	409a      	lsls	r2, r3
 8022b3e:	2101      	movs	r1, #1
 8022b40:	697b      	ldr	r3, [r7, #20]
 8022b42:	fa01 f303 	lsl.w	r3, r1, r3
 8022b46:	1e59      	subs	r1, r3, #1
 8022b48:	687b      	ldr	r3, [r7, #4]
 8022b4a:	400b      	ands	r3, r1
 8022b4c:	4313      	orrs	r3, r2
 8022b4e:	4618      	mov	r0, r3
 8022b50:	3724      	adds	r7, #36	; 0x24
 8022b52:	46bd      	mov	sp, r7
 8022b54:	f85d 7b04 	ldr.w	r7, [sp], #4
 8022b58:	4770      	bx	lr
 8022b5a:	bf00      	nop

08022b5c <SysTick_Config>:
 8022b5c:	b580      	push	{r7, lr}
 8022b5e:	b082      	sub	sp, #8
 8022b60:	af00      	add	r7, sp, #0
 8022b62:	6078      	str	r0, [r7, #4]
 8022b64:	687b      	ldr	r3, [r7, #4]
 8022b66:	3b01      	subs	r3, #1
 8022b68:	f1b3 7f80 	cmp.w	r3, #16777216	; 0x1000000
 8022b6c:	d301      	bcc.n	8022b72 <SysTick_Config+0x16>
 8022b6e:	2301      	movs	r3, #1
 8022b70:	e00f      	b.n	8022b92 <SysTick_Config+0x36>
 8022b72:	4a0a      	ldr	r2, [pc, #40]	; (8022b9c <SysTick_Config+0x40>)
 8022b74:	687b      	ldr	r3, [r7, #4]
 8022b76:	3b01      	subs	r3, #1
 8022b78:	6053      	str	r3, [r2, #4]
 8022b7a:	210f      	movs	r1, #15
 8022b7c:	f04f 30ff 	mov.w	r0, #4294967295	; 0xffffffff
 8022b80:	f7ff ff90 	bl	8022aa4 <__NVIC_SetPriority>
 8022b84:	4b05      	ldr	r3, [pc, #20]	; (8022b9c <SysTick_Config+0x40>)
 8022b86:	2200      	movs	r2, #0
 8022b88:	609a      	str	r2, [r3, #8]
 8022b8a:	4b04      	ldr	r3, [pc, #16]	; (8022b9c <SysTick_Config+0x40>)
 8022b8c:	2207      	movs	r2, #7
 8022b8e:	601a      	str	r2, [r3, #0]
 8022b90:	2300      	movs	r3, #0
 8022b92:	4618      	mov	r0, r3
 8022b94:	3708      	adds	r7, #8
 8022b96:	46bd      	mov	sp, r7
 8022b98:	bd80      	pop	{r7, pc}
 8022b9a:	bf00      	nop
 8022b9c:	e000e010 	and	lr, r0, r0, lsl r0

08022ba0 <HAL_NVIC_SetPriorityGrouping>:
 8022ba0:	b580      	push	{r7, lr}
 8022ba2:	b082      	sub	sp, #8
 8022ba4:	af00      	add	r7, sp, #0
 8022ba6:	6078      	str	r0, [r7, #4]
 8022ba8:	6878      	ldr	r0, [r7, #4]
 8022baa:	f7ff ff49 	bl	8022a40 <__NVIC_SetPriorityGrouping>
 8022bae:	bf00      	nop
 8022bb0:	3708      	adds	r7, #8
 8022bb2:	46bd      	mov	sp, r7
 8022bb4:	bd80      	pop	{r7, pc}
 8022bb6:	bf00      	nop

08022bb8 <HAL_NVIC_SetPriority>:
 8022bb8:	b580      	push	{r7, lr}
 8022bba:	b086      	sub	sp, #24
 8022bbc:	af00      	add	r7, sp, #0
 8022bbe:	4603      	mov	r3, r0
 8022bc0:	60b9      	str	r1, [r7, #8]
 8022bc2:	607a      	str	r2, [r7, #4]
 8022bc4:	73fb      	strb	r3, [r7, #15]
 8022bc6:	2300      	movs	r3, #0
 8022bc8:	617b      	str	r3, [r7, #20]
 8022bca:	f7ff ff5d 	bl	8022a88 <__NVIC_GetPriorityGrouping>
 8022bce:	6178      	str	r0, [r7, #20]
 8022bd0:	687a      	ldr	r2, [r7, #4]
 8022bd2:	68b9      	ldr	r1, [r7, #8]
 8022bd4:	6978      	ldr	r0, [r7, #20]
 8022bd6:	f7ff ff8f 	bl	8022af8 <NVIC_EncodePriority>
 8022bda:	4602      	mov	r2, r0
 8022bdc:	f997 300f 	ldrsb.w	r3, [r7, #15]
 8022be0:	4611      	mov	r1, r2
 8022be2:	4618      	mov	r0, r3
 8022be4:	f7ff ff5e 	bl	8022aa4 <__NVIC_SetPriority>
 8022be8:	bf00      	nop
 8022bea:	3718      	adds	r7, #24
 8022bec:	46bd      	mov	sp, r7
 8022bee:	bd80      	pop	{r7, pc}

08022bf0 <HAL_SYSTICK_Config>:
 8022bf0:	b580      	push	{r7, lr}
 8022bf2:	b082      	sub	sp, #8
 8022bf4:	af00      	add	r7, sp, #0
 8022bf6:	6078      	str	r0, [r7, #4]
 8022bf8:	6878      	ldr	r0, [r7, #4]
 8022bfa:	f7ff ffaf 	bl	8022b5c <SysTick_Config>
 8022bfe:	4603      	mov	r3, r0
 8022c00:	4618      	mov	r0, r3
 8022c02:	3708      	adds	r7, #8
 8022c04:	46bd      	mov	sp, r7
 8022c06:	bd80      	pop	{r7, pc}

08022c08 <HAL_SYSTICK_CLKSourceConfig>:
 8022c08:	b480      	push	{r7}
 8022c0a:	b083      	sub	sp, #12
 8022c0c:	af00      	add	r7, sp, #0
 8022c0e:	6078      	str	r0, [r7, #4]
 8022c10:	687b      	ldr	r3, [r7, #4]
 8022c12:	2b04      	cmp	r3, #4
 8022c14:	d106      	bne.n	8022c24 <HAL_SYSTICK_CLKSourceConfig+0x1c>
 8022c16:	4a09      	ldr	r2, [pc, #36]	; (8022c3c <HAL_SYSTICK_CLKSourceConfig+0x34>)
 8022c18:	4b08      	ldr	r3, [pc, #32]	; (8022c3c <HAL_SYSTICK_CLKSourceConfig+0x34>)
 8022c1a:	681b      	ldr	r3, [r3, #0]
 8022c1c:	f043 0304 	orr.w	r3, r3, #4
 8022c20:	6013      	str	r3, [r2, #0]
 8022c22:	e005      	b.n	8022c30 <HAL_SYSTICK_CLKSourceConfig+0x28>
 8022c24:	4a05      	ldr	r2, [pc, #20]	; (8022c3c <HAL_SYSTICK_CLKSourceConfig+0x34>)
 8022c26:	4b05      	ldr	r3, [pc, #20]	; (8022c3c <HAL_SYSTICK_CLKSourceConfig+0x34>)
 8022c28:	681b      	ldr	r3, [r3, #0]
 8022c2a:	f023 0304 	bic.w	r3, r3, #4
 8022c2e:	6013      	str	r3, [r2, #0]
 8022c30:	bf00      	nop
 8022c32:	370c      	adds	r7, #12
 8022c34:	46bd      	mov	sp, r7
 8022c36:	f85d 7b04 	ldr.w	r7, [sp], #4
 8022c3a:	4770      	bx	lr
 8022c3c:	e000e010 	and	lr, r0, r0, lsl r0

08022c40 <HAL_GPIO_Init>:
 8022c40:	b480      	push	{r7}
 8022c42:	b089      	sub	sp, #36	; 0x24
 8022c44:	af00      	add	r7, sp, #0
 8022c46:	6078      	str	r0, [r7, #4]
 8022c48:	6039      	str	r1, [r7, #0]
 8022c4a:	2300      	movs	r3, #0
 8022c4c:	617b      	str	r3, [r7, #20]
 8022c4e:	2300      	movs	r3, #0
 8022c50:	613b      	str	r3, [r7, #16]
 8022c52:	2300      	movs	r3, #0
 8022c54:	61bb      	str	r3, [r7, #24]
 8022c56:	2300      	movs	r3, #0
 8022c58:	61fb      	str	r3, [r7, #28]
 8022c5a:	e16b      	b.n	8022f34 <HAL_GPIO_Init+0x2f4>
 8022c5c:	2201      	movs	r2, #1
 8022c5e:	69fb      	ldr	r3, [r7, #28]
 8022c60:	fa02 f303 	lsl.w	r3, r2, r3
 8022c64:	617b      	str	r3, [r7, #20]
 8022c66:	683b      	ldr	r3, [r7, #0]
 8022c68:	681a      	ldr	r2, [r3, #0]
 8022c6a:	697b      	ldr	r3, [r7, #20]
 8022c6c:	4013      	ands	r3, r2
 8022c6e:	613b      	str	r3, [r7, #16]
 8022c70:	693a      	ldr	r2, [r7, #16]
 8022c72:	697b      	ldr	r3, [r7, #20]
 8022c74:	429a      	cmp	r2, r3
 8022c76:	f040 815a 	bne.w	8022f2e <HAL_GPIO_Init+0x2ee>
 8022c7a:	683b      	ldr	r3, [r7, #0]
 8022c7c:	685b      	ldr	r3, [r3, #4]
 8022c7e:	2b02      	cmp	r3, #2
 8022c80:	d003      	beq.n	8022c8a <HAL_GPIO_Init+0x4a>
 8022c82:	683b      	ldr	r3, [r7, #0]
 8022c84:	685b      	ldr	r3, [r3, #4]
 8022c86:	2b12      	cmp	r3, #18
 8022c88:	d123      	bne.n	8022cd2 <HAL_GPIO_Init+0x92>
 8022c8a:	69fb      	ldr	r3, [r7, #28]
 8022c8c:	08da      	lsrs	r2, r3, #3
 8022c8e:	687b      	ldr	r3, [r7, #4]
 8022c90:	3208      	adds	r2, #8
 8022c92:	f853 3022 	ldr.w	r3, [r3, r2, lsl #2]
 8022c96:	61bb      	str	r3, [r7, #24]
 8022c98:	69fb      	ldr	r3, [r7, #28]
 8022c9a:	f003 0307 	and.w	r3, r3, #7
 8022c9e:	009b      	lsls	r3, r3, #2
 8022ca0:	220f      	movs	r2, #15
 8022ca2:	fa02 f303 	lsl.w	r3, r2, r3
 8022ca6:	43db      	mvns	r3, r3
 8022ca8:	69ba      	ldr	r2, [r7, #24]
 8022caa:	4013      	ands	r3, r2
 8022cac:	61bb      	str	r3, [r7, #24]
 8022cae:	683b      	ldr	r3, [r7, #0]
 8022cb0:	691a      	ldr	r2, [r3, #16]
 8022cb2:	69fb      	ldr	r3, [r7, #28]
 8022cb4:	f003 0307 	and.w	r3, r3, #7
 8022cb8:	009b      	lsls	r3, r3, #2
 8022cba:	fa02 f303 	lsl.w	r3, r2, r3
 8022cbe:	69ba      	ldr	r2, [r7, #24]
 8022cc0:	4313      	orrs	r3, r2
 8022cc2:	61bb      	str	r3, [r7, #24]
 8022cc4:	69fb      	ldr	r3, [r7, #28]
 8022cc6:	08da      	lsrs	r2, r3, #3
 8022cc8:	687b      	ldr	r3, [r7, #4]
 8022cca:	3208      	adds	r2, #8
 8022ccc:	69b9      	ldr	r1, [r7, #24]
 8022cce:	f843 1022 	str.w	r1, [r3, r2, lsl #2]
 8022cd2:	687b      	ldr	r3, [r7, #4]
 8022cd4:	681b      	ldr	r3, [r3, #0]
 8022cd6:	61bb      	str	r3, [r7, #24]
 8022cd8:	69fb      	ldr	r3, [r7, #28]
 8022cda:	005b      	lsls	r3, r3, #1
 8022cdc:	2203      	movs	r2, #3
 8022cde:	fa02 f303 	lsl.w	r3, r2, r3
 8022ce2:	43db      	mvns	r3, r3
 8022ce4:	69ba      	ldr	r2, [r7, #24]
 8022ce6:	4013      	ands	r3, r2
 8022ce8:	61bb      	str	r3, [r7, #24]
 8022cea:	683b      	ldr	r3, [r7, #0]
 8022cec:	685b      	ldr	r3, [r3, #4]
 8022cee:	f003 0203 	and.w	r2, r3, #3
 8022cf2:	69fb      	ldr	r3, [r7, #28]
 8022cf4:	005b      	lsls	r3, r3, #1
 8022cf6:	fa02 f303 	lsl.w	r3, r2, r3
 8022cfa:	69ba      	ldr	r2, [r7, #24]
 8022cfc:	4313      	orrs	r3, r2
 8022cfe:	61bb      	str	r3, [r7, #24]
 8022d00:	687b      	ldr	r3, [r7, #4]
 8022d02:	69ba      	ldr	r2, [r7, #24]
 8022d04:	601a      	str	r2, [r3, #0]
 8022d06:	683b      	ldr	r3, [r7, #0]
 8022d08:	685b      	ldr	r3, [r3, #4]
 8022d0a:	2b01      	cmp	r3, #1
 8022d0c:	d00b      	beq.n	8022d26 <HAL_GPIO_Init+0xe6>
 8022d0e:	683b      	ldr	r3, [r7, #0]
 8022d10:	685b      	ldr	r3, [r3, #4]
 8022d12:	2b02      	cmp	r3, #2
 8022d14:	d007      	beq.n	8022d26 <HAL_GPIO_Init+0xe6>
 8022d16:	683b      	ldr	r3, [r7, #0]
 8022d18:	685b      	ldr	r3, [r3, #4]
 8022d1a:	2b11      	cmp	r3, #17
 8022d1c:	d003      	beq.n	8022d26 <HAL_GPIO_Init+0xe6>
 8022d1e:	683b      	ldr	r3, [r7, #0]
 8022d20:	685b      	ldr	r3, [r3, #4]
 8022d22:	2b12      	cmp	r3, #18
 8022d24:	d130      	bne.n	8022d88 <HAL_GPIO_Init+0x148>
 8022d26:	687b      	ldr	r3, [r7, #4]
 8022d28:	689b      	ldr	r3, [r3, #8]
 8022d2a:	61bb      	str	r3, [r7, #24]
 8022d2c:	69fb      	ldr	r3, [r7, #28]
 8022d2e:	005b      	lsls	r3, r3, #1
 8022d30:	2203      	movs	r2, #3
 8022d32:	fa02 f303 	lsl.w	r3, r2, r3
 8022d36:	43db      	mvns	r3, r3
 8022d38:	69ba      	ldr	r2, [r7, #24]
 8022d3a:	4013      	ands	r3, r2
 8022d3c:	61bb      	str	r3, [r7, #24]
 8022d3e:	683b      	ldr	r3, [r7, #0]
 8022d40:	68da      	ldr	r2, [r3, #12]
 8022d42:	69fb      	ldr	r3, [r7, #28]
 8022d44:	005b      	lsls	r3, r3, #1
 8022d46:	fa02 f303 	lsl.w	r3, r2, r3
 8022d4a:	69ba      	ldr	r2, [r7, #24]
 8022d4c:	4313      	orrs	r3, r2
 8022d4e:	61bb      	str	r3, [r7, #24]
 8022d50:	687b      	ldr	r3, [r7, #4]
 8022d52:	69ba      	ldr	r2, [r7, #24]
 8022d54:	609a      	str	r2, [r3, #8]
 8022d56:	687b      	ldr	r3, [r7, #4]
 8022d58:	685b      	ldr	r3, [r3, #4]
 8022d5a:	61bb      	str	r3, [r7, #24]
 8022d5c:	2201      	movs	r2, #1
 8022d5e:	69fb      	ldr	r3, [r7, #28]
 8022d60:	fa02 f303 	lsl.w	r3, r2, r3
 8022d64:	43db      	mvns	r3, r3
 8022d66:	69ba      	ldr	r2, [r7, #24]
 8022d68:	4013      	ands	r3, r2
 8022d6a:	61bb      	str	r3, [r7, #24]
 8022d6c:	683b      	ldr	r3, [r7, #0]
 8022d6e:	685b      	ldr	r3, [r3, #4]
 8022d70:	091b      	lsrs	r3, r3, #4
 8022d72:	f003 0201 	and.w	r2, r3, #1
 8022d76:	69fb      	ldr	r3, [r7, #28]
 8022d78:	fa02 f303 	lsl.w	r3, r2, r3
 8022d7c:	69ba      	ldr	r2, [r7, #24]
 8022d7e:	4313      	orrs	r3, r2
 8022d80:	61bb      	str	r3, [r7, #24]
 8022d82:	687b      	ldr	r3, [r7, #4]
 8022d84:	69ba      	ldr	r2, [r7, #24]
 8022d86:	605a      	str	r2, [r3, #4]
 8022d88:	687b      	ldr	r3, [r7, #4]
 8022d8a:	68db      	ldr	r3, [r3, #12]
 8022d8c:	61bb      	str	r3, [r7, #24]
 8022d8e:	69fb      	ldr	r3, [r7, #28]
 8022d90:	005b      	lsls	r3, r3, #1
 8022d92:	2203      	movs	r2, #3
 8022d94:	fa02 f303 	lsl.w	r3, r2, r3
 8022d98:	43db      	mvns	r3, r3
 8022d9a:	69ba      	ldr	r2, [r7, #24]
 8022d9c:	4013      	ands	r3, r2
 8022d9e:	61bb      	str	r3, [r7, #24]
 8022da0:	683b      	ldr	r3, [r7, #0]
 8022da2:	689a      	ldr	r2, [r3, #8]
 8022da4:	69fb      	ldr	r3, [r7, #28]
 8022da6:	005b      	lsls	r3, r3, #1
 8022da8:	fa02 f303 	lsl.w	r3, r2, r3
 8022dac:	69ba      	ldr	r2, [r7, #24]
 8022dae:	4313      	orrs	r3, r2
 8022db0:	61bb      	str	r3, [r7, #24]
 8022db2:	687b      	ldr	r3, [r7, #4]
 8022db4:	69ba      	ldr	r2, [r7, #24]
 8022db6:	60da      	str	r2, [r3, #12]
 8022db8:	683b      	ldr	r3, [r7, #0]
 8022dba:	685b      	ldr	r3, [r3, #4]
 8022dbc:	f003 5380 	and.w	r3, r3, #268435456	; 0x10000000
 8022dc0:	2b00      	cmp	r3, #0
 8022dc2:	f000 80b4 	beq.w	8022f2e <HAL_GPIO_Init+0x2ee>
 8022dc6:	2300      	movs	r3, #0
 8022dc8:	60fb      	str	r3, [r7, #12]
 8022dca:	4a5f      	ldr	r2, [pc, #380]	; (8022f48 <HAL_GPIO_Init+0x308>)
 8022dcc:	4b5e      	ldr	r3, [pc, #376]	; (8022f48 <HAL_GPIO_Init+0x308>)
 8022dce:	6c5b      	ldr	r3, [r3, #68]	; 0x44
 8022dd0:	f443 4380 	orr.w	r3, r3, #16384	; 0x4000
 8022dd4:	6453      	str	r3, [r2, #68]	; 0x44
 8022dd6:	4b5c      	ldr	r3, [pc, #368]	; (8022f48 <HAL_GPIO_Init+0x308>)
 8022dd8:	6c5b      	ldr	r3, [r3, #68]	; 0x44
 8022dda:	f403 4380 	and.w	r3, r3, #16384	; 0x4000
 8022dde:	60fb      	str	r3, [r7, #12]
 8022de0:	68fb      	ldr	r3, [r7, #12]
 8022de2:	4a5a      	ldr	r2, [pc, #360]	; (8022f4c <HAL_GPIO_Init+0x30c>)
 8022de4:	69fb      	ldr	r3, [r7, #28]
 8022de6:	089b      	lsrs	r3, r3, #2
 8022de8:	3302      	adds	r3, #2
 8022dea:	f852 3023 	ldr.w	r3, [r2, r3, lsl #2]
 8022dee:	61bb      	str	r3, [r7, #24]
 8022df0:	69fb      	ldr	r3, [r7, #28]
 8022df2:	f003 0303 	and.w	r3, r3, #3
 8022df6:	009b      	lsls	r3, r3, #2
 8022df8:	220f      	movs	r2, #15
 8022dfa:	fa02 f303 	lsl.w	r3, r2, r3
 8022dfe:	43db      	mvns	r3, r3
 8022e00:	69ba      	ldr	r2, [r7, #24]
 8022e02:	4013      	ands	r3, r2
 8022e04:	61bb      	str	r3, [r7, #24]
 8022e06:	687b      	ldr	r3, [r7, #4]
 8022e08:	4a51      	ldr	r2, [pc, #324]	; (8022f50 <HAL_GPIO_Init+0x310>)
 8022e0a:	4293      	cmp	r3, r2
 8022e0c:	d02b      	beq.n	8022e66 <HAL_GPIO_Init+0x226>
 8022e0e:	687b      	ldr	r3, [r7, #4]
 8022e10:	4a50      	ldr	r2, [pc, #320]	; (8022f54 <HAL_GPIO_Init+0x314>)
 8022e12:	4293      	cmp	r3, r2
 8022e14:	d025      	beq.n	8022e62 <HAL_GPIO_Init+0x222>
 8022e16:	687b      	ldr	r3, [r7, #4]
 8022e18:	4a4f      	ldr	r2, [pc, #316]	; (8022f58 <HAL_GPIO_Init+0x318>)
 8022e1a:	4293      	cmp	r3, r2
 8022e1c:	d01f      	beq.n	8022e5e <HAL_GPIO_Init+0x21e>
 8022e1e:	687b      	ldr	r3, [r7, #4]
 8022e20:	4a4e      	ldr	r2, [pc, #312]	; (8022f5c <HAL_GPIO_Init+0x31c>)
 8022e22:	4293      	cmp	r3, r2
 8022e24:	d019      	beq.n	8022e5a <HAL_GPIO_Init+0x21a>
 8022e26:	687b      	ldr	r3, [r7, #4]
 8022e28:	4a4d      	ldr	r2, [pc, #308]	; (8022f60 <HAL_GPIO_Init+0x320>)
 8022e2a:	4293      	cmp	r3, r2
 8022e2c:	d013      	beq.n	8022e56 <HAL_GPIO_Init+0x216>
 8022e2e:	687b      	ldr	r3, [r7, #4]
 8022e30:	4a4c      	ldr	r2, [pc, #304]	; (8022f64 <HAL_GPIO_Init+0x324>)
 8022e32:	4293      	cmp	r3, r2
 8022e34:	d00d      	beq.n	8022e52 <HAL_GPIO_Init+0x212>
 8022e36:	687b      	ldr	r3, [r7, #4]
 8022e38:	4a4b      	ldr	r2, [pc, #300]	; (8022f68 <HAL_GPIO_Init+0x328>)
 8022e3a:	4293      	cmp	r3, r2
 8022e3c:	d007      	beq.n	8022e4e <HAL_GPIO_Init+0x20e>
 8022e3e:	687b      	ldr	r3, [r7, #4]
 8022e40:	4a4a      	ldr	r2, [pc, #296]	; (8022f6c <HAL_GPIO_Init+0x32c>)
 8022e42:	4293      	cmp	r3, r2
 8022e44:	d101      	bne.n	8022e4a <HAL_GPIO_Init+0x20a>
 8022e46:	2307      	movs	r3, #7
 8022e48:	e00e      	b.n	8022e68 <HAL_GPIO_Init+0x228>
 8022e4a:	2308      	movs	r3, #8
 8022e4c:	e00c      	b.n	8022e68 <HAL_GPIO_Init+0x228>
 8022e4e:	2306      	movs	r3, #6
 8022e50:	e00a      	b.n	8022e68 <HAL_GPIO_Init+0x228>
 8022e52:	2305      	movs	r3, #5
 8022e54:	e008      	b.n	8022e68 <HAL_GPIO_Init+0x228>
 8022e56:	2304      	movs	r3, #4
 8022e58:	e006      	b.n	8022e68 <HAL_GPIO_Init+0x228>
 8022e5a:	2303      	movs	r3, #3
 8022e5c:	e004      	b.n	8022e68 <HAL_GPIO_Init+0x228>
 8022e5e:	2302      	movs	r3, #2
 8022e60:	e002      	b.n	8022e68 <HAL_GPIO_Init+0x228>
 8022e62:	2301      	movs	r3, #1
 8022e64:	e000      	b.n	8022e68 <HAL_GPIO_Init+0x228>
 8022e66:	2300      	movs	r3, #0
 8022e68:	69fa      	ldr	r2, [r7, #28]
 8022e6a:	f002 0203 	and.w	r2, r2, #3
 8022e6e:	0092      	lsls	r2, r2, #2
 8022e70:	4093      	lsls	r3, r2
 8022e72:	69ba      	ldr	r2, [r7, #24]
 8022e74:	4313      	orrs	r3, r2
 8022e76:	61bb      	str	r3, [r7, #24]
 8022e78:	4934      	ldr	r1, [pc, #208]	; (8022f4c <HAL_GPIO_Init+0x30c>)
 8022e7a:	69fb      	ldr	r3, [r7, #28]
 8022e7c:	089b      	lsrs	r3, r3, #2
 8022e7e:	3302      	adds	r3, #2
 8022e80:	69ba      	ldr	r2, [r7, #24]
 8022e82:	f841 2023 	str.w	r2, [r1, r3, lsl #2]
 8022e86:	4b3a      	ldr	r3, [pc, #232]	; (8022f70 <HAL_GPIO_Init+0x330>)
 8022e88:	681b      	ldr	r3, [r3, #0]
 8022e8a:	61bb      	str	r3, [r7, #24]
 8022e8c:	693b      	ldr	r3, [r7, #16]
 8022e8e:	43db      	mvns	r3, r3
 8022e90:	69ba      	ldr	r2, [r7, #24]
 8022e92:	4013      	ands	r3, r2
 8022e94:	61bb      	str	r3, [r7, #24]
 8022e96:	683b      	ldr	r3, [r7, #0]
 8022e98:	685b      	ldr	r3, [r3, #4]
 8022e9a:	f403 3380 	and.w	r3, r3, #65536	; 0x10000
 8022e9e:	2b00      	cmp	r3, #0
 8022ea0:	d003      	beq.n	8022eaa <HAL_GPIO_Init+0x26a>
 8022ea2:	69ba      	ldr	r2, [r7, #24]
 8022ea4:	693b      	ldr	r3, [r7, #16]
 8022ea6:	4313      	orrs	r3, r2
 8022ea8:	61bb      	str	r3, [r7, #24]
 8022eaa:	4a31      	ldr	r2, [pc, #196]	; (8022f70 <HAL_GPIO_Init+0x330>)
 8022eac:	69bb      	ldr	r3, [r7, #24]
 8022eae:	6013      	str	r3, [r2, #0]
 8022eb0:	4b2f      	ldr	r3, [pc, #188]	; (8022f70 <HAL_GPIO_Init+0x330>)
 8022eb2:	685b      	ldr	r3, [r3, #4]
 8022eb4:	61bb      	str	r3, [r7, #24]
 8022eb6:	693b      	ldr	r3, [r7, #16]
 8022eb8:	43db      	mvns	r3, r3
 8022eba:	69ba      	ldr	r2, [r7, #24]
 8022ebc:	4013      	ands	r3, r2
 8022ebe:	61bb      	str	r3, [r7, #24]
 8022ec0:	683b      	ldr	r3, [r7, #0]
 8022ec2:	685b      	ldr	r3, [r3, #4]
 8022ec4:	f403 3300 	and.w	r3, r3, #131072	; 0x20000
 8022ec8:	2b00      	cmp	r3, #0
 8022eca:	d003      	beq.n	8022ed4 <HAL_GPIO_Init+0x294>
 8022ecc:	69ba      	ldr	r2, [r7, #24]
 8022ece:	693b      	ldr	r3, [r7, #16]
 8022ed0:	4313      	orrs	r3, r2
 8022ed2:	61bb      	str	r3, [r7, #24]
 8022ed4:	4a26      	ldr	r2, [pc, #152]	; (8022f70 <HAL_GPIO_Init+0x330>)
 8022ed6:	69bb      	ldr	r3, [r7, #24]
 8022ed8:	6053      	str	r3, [r2, #4]
 8022eda:	4b25      	ldr	r3, [pc, #148]	; (8022f70 <HAL_GPIO_Init+0x330>)
 8022edc:	689b      	ldr	r3, [r3, #8]
 8022ede:	61bb      	str	r3, [r7, #24]
 8022ee0:	693b      	ldr	r3, [r7, #16]
 8022ee2:	43db      	mvns	r3, r3
 8022ee4:	69ba      	ldr	r2, [r7, #24]
 8022ee6:	4013      	ands	r3, r2
 8022ee8:	61bb      	str	r3, [r7, #24]
 8022eea:	683b      	ldr	r3, [r7, #0]
 8022eec:	685b      	ldr	r3, [r3, #4]
 8022eee:	f403 1380 	and.w	r3, r3, #1048576	; 0x100000
 8022ef2:	2b00      	cmp	r3, #0
 8022ef4:	d003      	beq.n	8022efe <HAL_GPIO_Init+0x2be>
 8022ef6:	69ba      	ldr	r2, [r7, #24]
 8022ef8:	693b      	ldr	r3, [r7, #16]
 8022efa:	4313      	orrs	r3, r2
 8022efc:	61bb      	str	r3, [r7, #24]
 8022efe:	4a1c      	ldr	r2, [pc, #112]	; (8022f70 <HAL_GPIO_Init+0x330>)
 8022f00:	69bb      	ldr	r3, [r7, #24]
 8022f02:	6093      	str	r3, [r2, #8]
 8022f04:	4b1a      	ldr	r3, [pc, #104]	; (8022f70 <HAL_GPIO_Init+0x330>)
 8022f06:	68db      	ldr	r3, [r3, #12]
 8022f08:	61bb      	str	r3, [r7, #24]
 8022f0a:	693b      	ldr	r3, [r7, #16]
 8022f0c:	43db      	mvns	r3, r3
 8022f0e:	69ba      	ldr	r2, [r7, #24]
 8022f10:	4013      	ands	r3, r2
 8022f12:	61bb      	str	r3, [r7, #24]
 8022f14:	683b      	ldr	r3, [r7, #0]
 8022f16:	685b      	ldr	r3, [r3, #4]
 8022f18:	f403 1300 	and.w	r3, r3, #2097152	; 0x200000
 8022f1c:	2b00      	cmp	r3, #0
 8022f1e:	d003      	beq.n	8022f28 <HAL_GPIO_Init+0x2e8>
 8022f20:	69ba      	ldr	r2, [r7, #24]
 8022f22:	693b      	ldr	r3, [r7, #16]
 8022f24:	4313      	orrs	r3, r2
 8022f26:	61bb      	str	r3, [r7, #24]
 8022f28:	4a11      	ldr	r2, [pc, #68]	; (8022f70 <HAL_GPIO_Init+0x330>)
 8022f2a:	69bb      	ldr	r3, [r7, #24]
 8022f2c:	60d3      	str	r3, [r2, #12]
 8022f2e:	69fb      	ldr	r3, [r7, #28]
 8022f30:	3301      	adds	r3, #1
 8022f32:	61fb      	str	r3, [r7, #28]
 8022f34:	69fb      	ldr	r3, [r7, #28]
 8022f36:	2b0f      	cmp	r3, #15
 8022f38:	f67f ae90 	bls.w	8022c5c <HAL_GPIO_Init+0x1c>
 8022f3c:	bf00      	nop
 8022f3e:	3724      	adds	r7, #36	; 0x24
 8022f40:	46bd      	mov	sp, r7
 8022f42:	f85d 7b04 	ldr.w	r7, [sp], #4
 8022f46:	4770      	bx	lr
 8022f48:	40023800 	andmi	r3, r2, r0, lsl #16
 8022f4c:	40013800 	andmi	r3, r1, r0, lsl #16
 8022f50:	40020000 	andmi	r0, r2, r0
 8022f54:	40020400 	andmi	r0, r2, r0, lsl #8
 8022f58:	40020800 	andmi	r0, r2, r0, lsl #16
 8022f5c:	40020c00 	andmi	r0, r2, r0, lsl #24
 8022f60:	40021000 	andmi	r1, r2, r0
 8022f64:	40021400 	andmi	r1, r2, r0, lsl #8
 8022f68:	40021800 	andmi	r1, r2, r0, lsl #16
 8022f6c:	40021c00 	andmi	r1, r2, r0, lsl #24
 8022f70:	40013c00 	andmi	r3, r1, r0, lsl #24

08022f74 <HAL_RCC_OscConfig>:
 8022f74:	b580      	push	{r7, lr}
 8022f76:	b086      	sub	sp, #24
 8022f78:	af00      	add	r7, sp, #0
 8022f7a:	6078      	str	r0, [r7, #4]
 8022f7c:	687b      	ldr	r3, [r7, #4]
 8022f7e:	2b00      	cmp	r3, #0
 8022f80:	d101      	bne.n	8022f86 <HAL_RCC_OscConfig+0x12>
 8022f82:	2301      	movs	r3, #1
 8022f84:	e22c      	b.n	80233e0 <HAL_RCC_OscConfig+0x46c>
 8022f86:	687b      	ldr	r3, [r7, #4]
 8022f88:	681b      	ldr	r3, [r3, #0]
 8022f8a:	f003 0301 	and.w	r3, r3, #1
 8022f8e:	2b00      	cmp	r3, #0
 8022f90:	d074      	beq.n	802307c <HAL_RCC_OscConfig+0x108>
 8022f92:	4ba7      	ldr	r3, [pc, #668]	; (8023230 <HAL_RCC_OscConfig+0x2bc>)
 8022f94:	689b      	ldr	r3, [r3, #8]
 8022f96:	f003 030c 	and.w	r3, r3, #12
 8022f9a:	2b04      	cmp	r3, #4
 8022f9c:	d00b      	beq.n	8022fb6 <HAL_RCC_OscConfig+0x42>
 8022f9e:	4ba4      	ldr	r3, [pc, #656]	; (8023230 <HAL_RCC_OscConfig+0x2bc>)
 8022fa0:	689b      	ldr	r3, [r3, #8]
 8022fa2:	f003 030c 	and.w	r3, r3, #12
 8022fa6:	2b08      	cmp	r3, #8
 8022fa8:	d111      	bne.n	8022fce <HAL_RCC_OscConfig+0x5a>
 8022faa:	4ba1      	ldr	r3, [pc, #644]	; (8023230 <HAL_RCC_OscConfig+0x2bc>)
 8022fac:	685b      	ldr	r3, [r3, #4]
 8022fae:	f403 0380 	and.w	r3, r3, #4194304	; 0x400000
 8022fb2:	2b00      	cmp	r3, #0
 8022fb4:	d00b      	beq.n	8022fce <HAL_RCC_OscConfig+0x5a>
 8022fb6:	4b9e      	ldr	r3, [pc, #632]	; (8023230 <HAL_RCC_OscConfig+0x2bc>)
 8022fb8:	681b      	ldr	r3, [r3, #0]
 8022fba:	f403 3300 	and.w	r3, r3, #131072	; 0x20000
 8022fbe:	2b00      	cmp	r3, #0
 8022fc0:	d05b      	beq.n	802307a <HAL_RCC_OscConfig+0x106>
 8022fc2:	687b      	ldr	r3, [r7, #4]
 8022fc4:	685b      	ldr	r3, [r3, #4]
 8022fc6:	2b00      	cmp	r3, #0
 8022fc8:	d157      	bne.n	802307a <HAL_RCC_OscConfig+0x106>
 8022fca:	2301      	movs	r3, #1
 8022fcc:	e208      	b.n	80233e0 <HAL_RCC_OscConfig+0x46c>
 8022fce:	687b      	ldr	r3, [r7, #4]
 8022fd0:	685b      	ldr	r3, [r3, #4]
 8022fd2:	f5b3 3f80 	cmp.w	r3, #65536	; 0x10000
 8022fd6:	d106      	bne.n	8022fe6 <HAL_RCC_OscConfig+0x72>
 8022fd8:	4a95      	ldr	r2, [pc, #596]	; (8023230 <HAL_RCC_OscConfig+0x2bc>)
 8022fda:	4b95      	ldr	r3, [pc, #596]	; (8023230 <HAL_RCC_OscConfig+0x2bc>)
 8022fdc:	681b      	ldr	r3, [r3, #0]
 8022fde:	f443 3380 	orr.w	r3, r3, #65536	; 0x10000
 8022fe2:	6013      	str	r3, [r2, #0]
 8022fe4:	e01d      	b.n	8023022 <HAL_RCC_OscConfig+0xae>
 8022fe6:	687b      	ldr	r3, [r7, #4]
 8022fe8:	685b      	ldr	r3, [r3, #4]
 8022fea:	f5b3 2fa0 	cmp.w	r3, #327680	; 0x50000
 8022fee:	d10c      	bne.n	802300a <HAL_RCC_OscConfig+0x96>
 8022ff0:	4a8f      	ldr	r2, [pc, #572]	; (8023230 <HAL_RCC_OscConfig+0x2bc>)
 8022ff2:	4b8f      	ldr	r3, [pc, #572]	; (8023230 <HAL_RCC_OscConfig+0x2bc>)
 8022ff4:	681b      	ldr	r3, [r3, #0]
 8022ff6:	f443 2380 	orr.w	r3, r3, #262144	; 0x40000
 8022ffa:	6013      	str	r3, [r2, #0]
 8022ffc:	4a8c      	ldr	r2, [pc, #560]	; (8023230 <HAL_RCC_OscConfig+0x2bc>)
 8022ffe:	4b8c      	ldr	r3, [pc, #560]	; (8023230 <HAL_RCC_OscConfig+0x2bc>)
 8023000:	681b      	ldr	r3, [r3, #0]
 8023002:	f443 3380 	orr.w	r3, r3, #65536	; 0x10000
 8023006:	6013      	str	r3, [r2, #0]
 8023008:	e00b      	b.n	8023022 <HAL_RCC_OscConfig+0xae>
 802300a:	4a89      	ldr	r2, [pc, #548]	; (8023230 <HAL_RCC_OscConfig+0x2bc>)
 802300c:	4b88      	ldr	r3, [pc, #544]	; (8023230 <HAL_RCC_OscConfig+0x2bc>)
 802300e:	681b      	ldr	r3, [r3, #0]
 8023010:	f423 3380 	bic.w	r3, r3, #65536	; 0x10000
 8023014:	6013      	str	r3, [r2, #0]
 8023016:	4a86      	ldr	r2, [pc, #536]	; (8023230 <HAL_RCC_OscConfig+0x2bc>)
 8023018:	4b85      	ldr	r3, [pc, #532]	; (8023230 <HAL_RCC_OscConfig+0x2bc>)
 802301a:	681b      	ldr	r3, [r3, #0]
 802301c:	f423 2380 	bic.w	r3, r3, #262144	; 0x40000
 8023020:	6013      	str	r3, [r2, #0]
 8023022:	687b      	ldr	r3, [r7, #4]
 8023024:	685b      	ldr	r3, [r3, #4]
 8023026:	2b00      	cmp	r3, #0
 8023028:	d013      	beq.n	8023052 <HAL_RCC_OscConfig+0xde>
 802302a:	f001 f821 	bl	8024070 <HAL_GetTick>
 802302e:	6138      	str	r0, [r7, #16]
 8023030:	e008      	b.n	8023044 <HAL_RCC_OscConfig+0xd0>
 8023032:	f001 f81d 	bl	8024070 <HAL_GetTick>
 8023036:	4602      	mov	r2, r0
 8023038:	693b      	ldr	r3, [r7, #16]
 802303a:	1ad3      	subs	r3, r2, r3
 802303c:	2b64      	cmp	r3, #100	; 0x64
 802303e:	d901      	bls.n	8023044 <HAL_RCC_OscConfig+0xd0>
 8023040:	2303      	movs	r3, #3
 8023042:	e1cd      	b.n	80233e0 <HAL_RCC_OscConfig+0x46c>
 8023044:	4b7a      	ldr	r3, [pc, #488]	; (8023230 <HAL_RCC_OscConfig+0x2bc>)
 8023046:	681b      	ldr	r3, [r3, #0]
 8023048:	f403 3300 	and.w	r3, r3, #131072	; 0x20000
 802304c:	2b00      	cmp	r3, #0
 802304e:	d0f0      	beq.n	8023032 <HAL_RCC_OscConfig+0xbe>
 8023050:	e014      	b.n	802307c <HAL_RCC_OscConfig+0x108>
 8023052:	f001 f80d 	bl	8024070 <HAL_GetTick>
 8023056:	6138      	str	r0, [r7, #16]
 8023058:	e008      	b.n	802306c <HAL_RCC_OscConfig+0xf8>
 802305a:	f001 f809 	bl	8024070 <HAL_GetTick>
 802305e:	4602      	mov	r2, r0
 8023060:	693b      	ldr	r3, [r7, #16]
 8023062:	1ad3      	subs	r3, r2, r3
 8023064:	2b64      	cmp	r3, #100	; 0x64
 8023066:	d901      	bls.n	802306c <HAL_RCC_OscConfig+0xf8>
 8023068:	2303      	movs	r3, #3
 802306a:	e1b9      	b.n	80233e0 <HAL_RCC_OscConfig+0x46c>
 802306c:	4b70      	ldr	r3, [pc, #448]	; (8023230 <HAL_RCC_OscConfig+0x2bc>)
 802306e:	681b      	ldr	r3, [r3, #0]
 8023070:	f403 3300 	and.w	r3, r3, #131072	; 0x20000
 8023074:	2b00      	cmp	r3, #0
 8023076:	d1f0      	bne.n	802305a <HAL_RCC_OscConfig+0xe6>
 8023078:	e000      	b.n	802307c <HAL_RCC_OscConfig+0x108>
 802307a:	bf00      	nop
 802307c:	687b      	ldr	r3, [r7, #4]
 802307e:	681b      	ldr	r3, [r3, #0]
 8023080:	f003 0302 	and.w	r3, r3, #2
 8023084:	2b00      	cmp	r3, #0
 8023086:	d063      	beq.n	8023150 <HAL_RCC_OscConfig+0x1dc>
 8023088:	4b69      	ldr	r3, [pc, #420]	; (8023230 <HAL_RCC_OscConfig+0x2bc>)
 802308a:	689b      	ldr	r3, [r3, #8]
 802308c:	f003 030c 	and.w	r3, r3, #12
 8023090:	2b00      	cmp	r3, #0
 8023092:	d00b      	beq.n	80230ac <HAL_RCC_OscConfig+0x138>
 8023094:	4b66      	ldr	r3, [pc, #408]	; (8023230 <HAL_RCC_OscConfig+0x2bc>)
 8023096:	689b      	ldr	r3, [r3, #8]
 8023098:	f003 030c 	and.w	r3, r3, #12
 802309c:	2b08      	cmp	r3, #8
 802309e:	d11c      	bne.n	80230da <HAL_RCC_OscConfig+0x166>
 80230a0:	4b63      	ldr	r3, [pc, #396]	; (8023230 <HAL_RCC_OscConfig+0x2bc>)
 80230a2:	685b      	ldr	r3, [r3, #4]
 80230a4:	f403 0380 	and.w	r3, r3, #4194304	; 0x400000
 80230a8:	2b00      	cmp	r3, #0
 80230aa:	d116      	bne.n	80230da <HAL_RCC_OscConfig+0x166>
 80230ac:	4b60      	ldr	r3, [pc, #384]	; (8023230 <HAL_RCC_OscConfig+0x2bc>)
 80230ae:	681b      	ldr	r3, [r3, #0]
 80230b0:	f003 0302 	and.w	r3, r3, #2
 80230b4:	2b00      	cmp	r3, #0
 80230b6:	d005      	beq.n	80230c4 <HAL_RCC_OscConfig+0x150>
 80230b8:	687b      	ldr	r3, [r7, #4]
 80230ba:	68db      	ldr	r3, [r3, #12]
 80230bc:	2b01      	cmp	r3, #1
 80230be:	d001      	beq.n	80230c4 <HAL_RCC_OscConfig+0x150>
 80230c0:	2301      	movs	r3, #1
 80230c2:	e18d      	b.n	80233e0 <HAL_RCC_OscConfig+0x46c>
 80230c4:	495a      	ldr	r1, [pc, #360]	; (8023230 <HAL_RCC_OscConfig+0x2bc>)
 80230c6:	4b5a      	ldr	r3, [pc, #360]	; (8023230 <HAL_RCC_OscConfig+0x2bc>)
 80230c8:	681b      	ldr	r3, [r3, #0]
 80230ca:	f023 02f8 	bic.w	r2, r3, #248	; 0xf8
 80230ce:	687b      	ldr	r3, [r7, #4]
 80230d0:	691b      	ldr	r3, [r3, #16]
 80230d2:	00db      	lsls	r3, r3, #3
 80230d4:	4313      	orrs	r3, r2
 80230d6:	600b      	str	r3, [r1, #0]
 80230d8:	e03a      	b.n	8023150 <HAL_RCC_OscConfig+0x1dc>
 80230da:	687b      	ldr	r3, [r7, #4]
 80230dc:	68db      	ldr	r3, [r3, #12]
 80230de:	2b00      	cmp	r3, #0
 80230e0:	d020      	beq.n	8023124 <HAL_RCC_OscConfig+0x1b0>
 80230e2:	4b54      	ldr	r3, [pc, #336]	; (8023234 <HAL_RCC_OscConfig+0x2c0>)
 80230e4:	2201      	movs	r2, #1
 80230e6:	601a      	str	r2, [r3, #0]
 80230e8:	f000 ffc2 	bl	8024070 <HAL_GetTick>
 80230ec:	6138      	str	r0, [r7, #16]
 80230ee:	e008      	b.n	8023102 <HAL_RCC_OscConfig+0x18e>
 80230f0:	f000 ffbe 	bl	8024070 <HAL_GetTick>
 80230f4:	4602      	mov	r2, r0
 80230f6:	693b      	ldr	r3, [r7, #16]
 80230f8:	1ad3      	subs	r3, r2, r3
 80230fa:	2b02      	cmp	r3, #2
 80230fc:	d901      	bls.n	8023102 <HAL_RCC_OscConfig+0x18e>
 80230fe:	2303      	movs	r3, #3
 8023100:	e16e      	b.n	80233e0 <HAL_RCC_OscConfig+0x46c>
 8023102:	4b4b      	ldr	r3, [pc, #300]	; (8023230 <HAL_RCC_OscConfig+0x2bc>)
 8023104:	681b      	ldr	r3, [r3, #0]
 8023106:	f003 0302 	and.w	r3, r3, #2
 802310a:	2b00      	cmp	r3, #0
 802310c:	d0f0      	beq.n	80230f0 <HAL_RCC_OscConfig+0x17c>
 802310e:	4948      	ldr	r1, [pc, #288]	; (8023230 <HAL_RCC_OscConfig+0x2bc>)
 8023110:	4b47      	ldr	r3, [pc, #284]	; (8023230 <HAL_RCC_OscConfig+0x2bc>)
 8023112:	681b      	ldr	r3, [r3, #0]
 8023114:	f023 02f8 	bic.w	r2, r3, #248	; 0xf8
 8023118:	687b      	ldr	r3, [r7, #4]
 802311a:	691b      	ldr	r3, [r3, #16]
 802311c:	00db      	lsls	r3, r3, #3
 802311e:	4313      	orrs	r3, r2
 8023120:	600b      	str	r3, [r1, #0]
 8023122:	e015      	b.n	8023150 <HAL_RCC_OscConfig+0x1dc>
 8023124:	4b43      	ldr	r3, [pc, #268]	; (8023234 <HAL_RCC_OscConfig+0x2c0>)
 8023126:	2200      	movs	r2, #0
 8023128:	601a      	str	r2, [r3, #0]
 802312a:	f000 ffa1 	bl	8024070 <HAL_GetTick>
 802312e:	6138      	str	r0, [r7, #16]
 8023130:	e008      	b.n	8023144 <HAL_RCC_OscConfig+0x1d0>
 8023132:	f000 ff9d 	bl	8024070 <HAL_GetTick>
 8023136:	4602      	mov	r2, r0
 8023138:	693b      	ldr	r3, [r7, #16]
 802313a:	1ad3      	subs	r3, r2, r3
 802313c:	2b02      	cmp	r3, #2
 802313e:	d901      	bls.n	8023144 <HAL_RCC_OscConfig+0x1d0>
 8023140:	2303      	movs	r3, #3
 8023142:	e14d      	b.n	80233e0 <HAL_RCC_OscConfig+0x46c>
 8023144:	4b3a      	ldr	r3, [pc, #232]	; (8023230 <HAL_RCC_OscConfig+0x2bc>)
 8023146:	681b      	ldr	r3, [r3, #0]
 8023148:	f003 0302 	and.w	r3, r3, #2
 802314c:	2b00      	cmp	r3, #0
 802314e:	d1f0      	bne.n	8023132 <HAL_RCC_OscConfig+0x1be>
 8023150:	687b      	ldr	r3, [r7, #4]
 8023152:	681b      	ldr	r3, [r3, #0]
 8023154:	f003 0308 	and.w	r3, r3, #8
 8023158:	2b00      	cmp	r3, #0
 802315a:	d030      	beq.n	80231be <HAL_RCC_OscConfig+0x24a>
 802315c:	687b      	ldr	r3, [r7, #4]
 802315e:	695b      	ldr	r3, [r3, #20]
 8023160:	2b00      	cmp	r3, #0
 8023162:	d016      	beq.n	8023192 <HAL_RCC_OscConfig+0x21e>
 8023164:	4b34      	ldr	r3, [pc, #208]	; (8023238 <HAL_RCC_OscConfig+0x2c4>)
 8023166:	2201      	movs	r2, #1
 8023168:	601a      	str	r2, [r3, #0]
 802316a:	f000 ff81 	bl	8024070 <HAL_GetTick>
 802316e:	6138      	str	r0, [r7, #16]
 8023170:	e008      	b.n	8023184 <HAL_RCC_OscConfig+0x210>
 8023172:	f000 ff7d 	bl	8024070 <HAL_GetTick>
 8023176:	4602      	mov	r2, r0
 8023178:	693b      	ldr	r3, [r7, #16]
 802317a:	1ad3      	subs	r3, r2, r3
 802317c:	2b02      	cmp	r3, #2
 802317e:	d901      	bls.n	8023184 <HAL_RCC_OscConfig+0x210>
 8023180:	2303      	movs	r3, #3
 8023182:	e12d      	b.n	80233e0 <HAL_RCC_OscConfig+0x46c>
 8023184:	4b2a      	ldr	r3, [pc, #168]	; (8023230 <HAL_RCC_OscConfig+0x2bc>)
 8023186:	6f5b      	ldr	r3, [r3, #116]	; 0x74
 8023188:	f003 0302 	and.w	r3, r3, #2
 802318c:	2b00      	cmp	r3, #0
 802318e:	d0f0      	beq.n	8023172 <HAL_RCC_OscConfig+0x1fe>
 8023190:	e015      	b.n	80231be <HAL_RCC_OscConfig+0x24a>
 8023192:	4b29      	ldr	r3, [pc, #164]	; (8023238 <HAL_RCC_OscConfig+0x2c4>)
 8023194:	2200      	movs	r2, #0
 8023196:	601a      	str	r2, [r3, #0]
 8023198:	f000 ff6a 	bl	8024070 <HAL_GetTick>
 802319c:	6138      	str	r0, [r7, #16]
 802319e:	e008      	b.n	80231b2 <HAL_RCC_OscConfig+0x23e>
 80231a0:	f000 ff66 	bl	8024070 <HAL_GetTick>
 80231a4:	4602      	mov	r2, r0
 80231a6:	693b      	ldr	r3, [r7, #16]
 80231a8:	1ad3      	subs	r3, r2, r3
 80231aa:	2b02      	cmp	r3, #2
 80231ac:	d901      	bls.n	80231b2 <HAL_RCC_OscConfig+0x23e>
 80231ae:	2303      	movs	r3, #3
 80231b0:	e116      	b.n	80233e0 <HAL_RCC_OscConfig+0x46c>
 80231b2:	4b1f      	ldr	r3, [pc, #124]	; (8023230 <HAL_RCC_OscConfig+0x2bc>)
 80231b4:	6f5b      	ldr	r3, [r3, #116]	; 0x74
 80231b6:	f003 0302 	and.w	r3, r3, #2
 80231ba:	2b00      	cmp	r3, #0
 80231bc:	d1f0      	bne.n	80231a0 <HAL_RCC_OscConfig+0x22c>
 80231be:	687b      	ldr	r3, [r7, #4]
 80231c0:	681b      	ldr	r3, [r3, #0]
 80231c2:	f003 0304 	and.w	r3, r3, #4
 80231c6:	2b00      	cmp	r3, #0
 80231c8:	f000 80a0 	beq.w	802330c <HAL_RCC_OscConfig+0x398>
 80231cc:	2300      	movs	r3, #0
 80231ce:	75fb      	strb	r3, [r7, #23]
 80231d0:	4b17      	ldr	r3, [pc, #92]	; (8023230 <HAL_RCC_OscConfig+0x2bc>)
 80231d2:	6c1b      	ldr	r3, [r3, #64]	; 0x40
 80231d4:	f003 5380 	and.w	r3, r3, #268435456	; 0x10000000
 80231d8:	2b00      	cmp	r3, #0
 80231da:	d10f      	bne.n	80231fc <HAL_RCC_OscConfig+0x288>
 80231dc:	2300      	movs	r3, #0
 80231de:	60fb      	str	r3, [r7, #12]
 80231e0:	4a13      	ldr	r2, [pc, #76]	; (8023230 <HAL_RCC_OscConfig+0x2bc>)
 80231e2:	4b13      	ldr	r3, [pc, #76]	; (8023230 <HAL_RCC_OscConfig+0x2bc>)
 80231e4:	6c1b      	ldr	r3, [r3, #64]	; 0x40
 80231e6:	f043 5380 	orr.w	r3, r3, #268435456	; 0x10000000
 80231ea:	6413      	str	r3, [r2, #64]	; 0x40
 80231ec:	4b10      	ldr	r3, [pc, #64]	; (8023230 <HAL_RCC_OscConfig+0x2bc>)
 80231ee:	6c1b      	ldr	r3, [r3, #64]	; 0x40
 80231f0:	f003 5380 	and.w	r3, r3, #268435456	; 0x10000000
 80231f4:	60fb      	str	r3, [r7, #12]
 80231f6:	68fb      	ldr	r3, [r7, #12]
 80231f8:	2301      	movs	r3, #1
 80231fa:	75fb      	strb	r3, [r7, #23]
 80231fc:	4b0f      	ldr	r3, [pc, #60]	; (802323c <HAL_RCC_OscConfig+0x2c8>)
 80231fe:	681b      	ldr	r3, [r3, #0]
 8023200:	f403 7380 	and.w	r3, r3, #256	; 0x100
 8023204:	2b00      	cmp	r3, #0
 8023206:	d121      	bne.n	802324c <HAL_RCC_OscConfig+0x2d8>
 8023208:	4a0c      	ldr	r2, [pc, #48]	; (802323c <HAL_RCC_OscConfig+0x2c8>)
 802320a:	4b0c      	ldr	r3, [pc, #48]	; (802323c <HAL_RCC_OscConfig+0x2c8>)
 802320c:	681b      	ldr	r3, [r3, #0]
 802320e:	f443 7380 	orr.w	r3, r3, #256	; 0x100
 8023212:	6013      	str	r3, [r2, #0]
 8023214:	f000 ff2c 	bl	8024070 <HAL_GetTick>
 8023218:	6138      	str	r0, [r7, #16]
 802321a:	e011      	b.n	8023240 <HAL_RCC_OscConfig+0x2cc>
 802321c:	f000 ff28 	bl	8024070 <HAL_GetTick>
 8023220:	4602      	mov	r2, r0
 8023222:	693b      	ldr	r3, [r7, #16]
 8023224:	1ad3      	subs	r3, r2, r3
 8023226:	2b02      	cmp	r3, #2
 8023228:	d90a      	bls.n	8023240 <HAL_RCC_OscConfig+0x2cc>
 802322a:	2303      	movs	r3, #3
 802322c:	e0d8      	b.n	80233e0 <HAL_RCC_OscConfig+0x46c>
 802322e:	bf00      	nop
 8023230:	40023800 	andmi	r3, r2, r0, lsl #16
 8023234:	42470000 	submi	r0, r7, #0
 8023238:	42470e80 	submi	r0, r7, #128, 28	; 0x800
 802323c:	40007000 	andmi	r7, r0, r0
 8023240:	4b69      	ldr	r3, [pc, #420]	; (80233e8 <HAL_RCC_OscConfig+0x474>)
 8023242:	681b      	ldr	r3, [r3, #0]
 8023244:	f403 7380 	and.w	r3, r3, #256	; 0x100
 8023248:	2b00      	cmp	r3, #0
 802324a:	d0e7      	beq.n	802321c <HAL_RCC_OscConfig+0x2a8>
 802324c:	687b      	ldr	r3, [r7, #4]
 802324e:	689b      	ldr	r3, [r3, #8]
 8023250:	2b01      	cmp	r3, #1
 8023252:	d106      	bne.n	8023262 <HAL_RCC_OscConfig+0x2ee>
 8023254:	4a65      	ldr	r2, [pc, #404]	; (80233ec <HAL_RCC_OscConfig+0x478>)
 8023256:	4b65      	ldr	r3, [pc, #404]	; (80233ec <HAL_RCC_OscConfig+0x478>)
 8023258:	6f1b      	ldr	r3, [r3, #112]	; 0x70
 802325a:	f043 0301 	orr.w	r3, r3, #1
 802325e:	6713      	str	r3, [r2, #112]	; 0x70
 8023260:	e01c      	b.n	802329c <HAL_RCC_OscConfig+0x328>
 8023262:	687b      	ldr	r3, [r7, #4]
 8023264:	689b      	ldr	r3, [r3, #8]
 8023266:	2b05      	cmp	r3, #5
 8023268:	d10c      	bne.n	8023284 <HAL_RCC_OscConfig+0x310>
 802326a:	4a60      	ldr	r2, [pc, #384]	; (80233ec <HAL_RCC_OscConfig+0x478>)
 802326c:	4b5f      	ldr	r3, [pc, #380]	; (80233ec <HAL_RCC_OscConfig+0x478>)
 802326e:	6f1b      	ldr	r3, [r3, #112]	; 0x70
 8023270:	f043 0304 	orr.w	r3, r3, #4
 8023274:	6713      	str	r3, [r2, #112]	; 0x70
 8023276:	4a5d      	ldr	r2, [pc, #372]	; (80233ec <HAL_RCC_OscConfig+0x478>)
 8023278:	4b5c      	ldr	r3, [pc, #368]	; (80233ec <HAL_RCC_OscConfig+0x478>)
 802327a:	6f1b      	ldr	r3, [r3, #112]	; 0x70
 802327c:	f043 0301 	orr.w	r3, r3, #1
 8023280:	6713      	str	r3, [r2, #112]	; 0x70
 8023282:	e00b      	b.n	802329c <HAL_RCC_OscConfig+0x328>
 8023284:	4a59      	ldr	r2, [pc, #356]	; (80233ec <HAL_RCC_OscConfig+0x478>)
 8023286:	4b59      	ldr	r3, [pc, #356]	; (80233ec <HAL_RCC_OscConfig+0x478>)
 8023288:	6f1b      	ldr	r3, [r3, #112]	; 0x70
 802328a:	f023 0301 	bic.w	r3, r3, #1
 802328e:	6713      	str	r3, [r2, #112]	; 0x70
 8023290:	4a56      	ldr	r2, [pc, #344]	; (80233ec <HAL_RCC_OscConfig+0x478>)
 8023292:	4b56      	ldr	r3, [pc, #344]	; (80233ec <HAL_RCC_OscConfig+0x478>)
 8023294:	6f1b      	ldr	r3, [r3, #112]	; 0x70
 8023296:	f023 0304 	bic.w	r3, r3, #4
 802329a:	6713      	str	r3, [r2, #112]	; 0x70
 802329c:	687b      	ldr	r3, [r7, #4]
 802329e:	689b      	ldr	r3, [r3, #8]
 80232a0:	2b00      	cmp	r3, #0
 80232a2:	d015      	beq.n	80232d0 <HAL_RCC_OscConfig+0x35c>
 80232a4:	f000 fee4 	bl	8024070 <HAL_GetTick>
 80232a8:	6138      	str	r0, [r7, #16]
 80232aa:	e00a      	b.n	80232c2 <HAL_RCC_OscConfig+0x34e>
 80232ac:	f000 fee0 	bl	8024070 <HAL_GetTick>
 80232b0:	4602      	mov	r2, r0
 80232b2:	693b      	ldr	r3, [r7, #16]
 80232b4:	1ad3      	subs	r3, r2, r3
 80232b6:	f241 3288 	movw	r2, #5000	; 0x1388
 80232ba:	4293      	cmp	r3, r2
 80232bc:	d901      	bls.n	80232c2 <HAL_RCC_OscConfig+0x34e>
 80232be:	2303      	movs	r3, #3
 80232c0:	e08e      	b.n	80233e0 <HAL_RCC_OscConfig+0x46c>
 80232c2:	4b4a      	ldr	r3, [pc, #296]	; (80233ec <HAL_RCC_OscConfig+0x478>)
 80232c4:	6f1b      	ldr	r3, [r3, #112]	; 0x70
 80232c6:	f003 0302 	and.w	r3, r3, #2
 80232ca:	2b00      	cmp	r3, #0
 80232cc:	d0ee      	beq.n	80232ac <HAL_RCC_OscConfig+0x338>
 80232ce:	e014      	b.n	80232fa <HAL_RCC_OscConfig+0x386>
 80232d0:	f000 fece 	bl	8024070 <HAL_GetTick>
 80232d4:	6138      	str	r0, [r7, #16]
 80232d6:	e00a      	b.n	80232ee <HAL_RCC_OscConfig+0x37a>
 80232d8:	f000 feca 	bl	8024070 <HAL_GetTick>
 80232dc:	4602      	mov	r2, r0
 80232de:	693b      	ldr	r3, [r7, #16]
 80232e0:	1ad3      	subs	r3, r2, r3
 80232e2:	f241 3288 	movw	r2, #5000	; 0x1388
 80232e6:	4293      	cmp	r3, r2
 80232e8:	d901      	bls.n	80232ee <HAL_RCC_OscConfig+0x37a>
 80232ea:	2303      	movs	r3, #3
 80232ec:	e078      	b.n	80233e0 <HAL_RCC_OscConfig+0x46c>
 80232ee:	4b3f      	ldr	r3, [pc, #252]	; (80233ec <HAL_RCC_OscConfig+0x478>)
 80232f0:	6f1b      	ldr	r3, [r3, #112]	; 0x70
 80232f2:	f003 0302 	and.w	r3, r3, #2
 80232f6:	2b00      	cmp	r3, #0
 80232f8:	d1ee      	bne.n	80232d8 <HAL_RCC_OscConfig+0x364>
 80232fa:	7dfb      	ldrb	r3, [r7, #23]
 80232fc:	2b01      	cmp	r3, #1
 80232fe:	d105      	bne.n	802330c <HAL_RCC_OscConfig+0x398>
 8023300:	4a3a      	ldr	r2, [pc, #232]	; (80233ec <HAL_RCC_OscConfig+0x478>)
 8023302:	4b3a      	ldr	r3, [pc, #232]	; (80233ec <HAL_RCC_OscConfig+0x478>)
 8023304:	6c1b      	ldr	r3, [r3, #64]	; 0x40
 8023306:	f023 5380 	bic.w	r3, r3, #268435456	; 0x10000000
 802330a:	6413      	str	r3, [r2, #64]	; 0x40
 802330c:	687b      	ldr	r3, [r7, #4]
 802330e:	699b      	ldr	r3, [r3, #24]
 8023310:	2b00      	cmp	r3, #0
 8023312:	d064      	beq.n	80233de <HAL_RCC_OscConfig+0x46a>
 8023314:	4b35      	ldr	r3, [pc, #212]	; (80233ec <HAL_RCC_OscConfig+0x478>)
 8023316:	689b      	ldr	r3, [r3, #8]
 8023318:	f003 030c 	and.w	r3, r3, #12
 802331c:	2b08      	cmp	r3, #8
 802331e:	d05c      	beq.n	80233da <HAL_RCC_OscConfig+0x466>
 8023320:	687b      	ldr	r3, [r7, #4]
 8023322:	699b      	ldr	r3, [r3, #24]
 8023324:	2b02      	cmp	r3, #2
 8023326:	d141      	bne.n	80233ac <HAL_RCC_OscConfig+0x438>
 8023328:	4b31      	ldr	r3, [pc, #196]	; (80233f0 <HAL_RCC_OscConfig+0x47c>)
 802332a:	2200      	movs	r2, #0
 802332c:	601a      	str	r2, [r3, #0]
 802332e:	f000 fe9f 	bl	8024070 <HAL_GetTick>
 8023332:	6138      	str	r0, [r7, #16]
 8023334:	e008      	b.n	8023348 <HAL_RCC_OscConfig+0x3d4>
 8023336:	f000 fe9b 	bl	8024070 <HAL_GetTick>
 802333a:	4602      	mov	r2, r0
 802333c:	693b      	ldr	r3, [r7, #16]
 802333e:	1ad3      	subs	r3, r2, r3
 8023340:	2b02      	cmp	r3, #2
 8023342:	d901      	bls.n	8023348 <HAL_RCC_OscConfig+0x3d4>
 8023344:	2303      	movs	r3, #3
 8023346:	e04b      	b.n	80233e0 <HAL_RCC_OscConfig+0x46c>
 8023348:	4b28      	ldr	r3, [pc, #160]	; (80233ec <HAL_RCC_OscConfig+0x478>)
 802334a:	681b      	ldr	r3, [r3, #0]
 802334c:	f003 7300 	and.w	r3, r3, #33554432	; 0x2000000
 8023350:	2b00      	cmp	r3, #0
 8023352:	d1f0      	bne.n	8023336 <HAL_RCC_OscConfig+0x3c2>
 8023354:	4925      	ldr	r1, [pc, #148]	; (80233ec <HAL_RCC_OscConfig+0x478>)
 8023356:	687b      	ldr	r3, [r7, #4]
 8023358:	69da      	ldr	r2, [r3, #28]
 802335a:	687b      	ldr	r3, [r7, #4]
 802335c:	6a1b      	ldr	r3, [r3, #32]
 802335e:	431a      	orrs	r2, r3
 8023360:	687b      	ldr	r3, [r7, #4]
 8023362:	6a5b      	ldr	r3, [r3, #36]	; 0x24
 8023364:	019b      	lsls	r3, r3, #6
 8023366:	431a      	orrs	r2, r3
 8023368:	687b      	ldr	r3, [r7, #4]
 802336a:	6a9b      	ldr	r3, [r3, #40]	; 0x28
 802336c:	085b      	lsrs	r3, r3, #1
 802336e:	3b01      	subs	r3, #1
 8023370:	041b      	lsls	r3, r3, #16
 8023372:	431a      	orrs	r2, r3
 8023374:	687b      	ldr	r3, [r7, #4]
 8023376:	6adb      	ldr	r3, [r3, #44]	; 0x2c
 8023378:	061b      	lsls	r3, r3, #24
 802337a:	4313      	orrs	r3, r2
 802337c:	604b      	str	r3, [r1, #4]
 802337e:	4b1c      	ldr	r3, [pc, #112]	; (80233f0 <HAL_RCC_OscConfig+0x47c>)
 8023380:	2201      	movs	r2, #1
 8023382:	601a      	str	r2, [r3, #0]
 8023384:	f000 fe74 	bl	8024070 <HAL_GetTick>
 8023388:	6138      	str	r0, [r7, #16]
 802338a:	e008      	b.n	802339e <HAL_RCC_OscConfig+0x42a>
 802338c:	f000 fe70 	bl	8024070 <HAL_GetTick>
 8023390:	4602      	mov	r2, r0
 8023392:	693b      	ldr	r3, [r7, #16]
 8023394:	1ad3      	subs	r3, r2, r3
 8023396:	2b02      	cmp	r3, #2
 8023398:	d901      	bls.n	802339e <HAL_RCC_OscConfig+0x42a>
 802339a:	2303      	movs	r3, #3
 802339c:	e020      	b.n	80233e0 <HAL_RCC_OscConfig+0x46c>
 802339e:	4b13      	ldr	r3, [pc, #76]	; (80233ec <HAL_RCC_OscConfig+0x478>)
 80233a0:	681b      	ldr	r3, [r3, #0]
 80233a2:	f003 7300 	and.w	r3, r3, #33554432	; 0x2000000
 80233a6:	2b00      	cmp	r3, #0
 80233a8:	d0f0      	beq.n	802338c <HAL_RCC_OscConfig+0x418>
 80233aa:	e018      	b.n	80233de <HAL_RCC_OscConfig+0x46a>
 80233ac:	4b10      	ldr	r3, [pc, #64]	; (80233f0 <HAL_RCC_OscConfig+0x47c>)
 80233ae:	2200      	movs	r2, #0
 80233b0:	601a      	str	r2, [r3, #0]
 80233b2:	f000 fe5d 	bl	8024070 <HAL_GetTick>
 80233b6:	6138      	str	r0, [r7, #16]
 80233b8:	e008      	b.n	80233cc <HAL_RCC_OscConfig+0x458>
 80233ba:	f000 fe59 	bl	8024070 <HAL_GetTick>
 80233be:	4602      	mov	r2, r0
 80233c0:	693b      	ldr	r3, [r7, #16]
 80233c2:	1ad3      	subs	r3, r2, r3
 80233c4:	2b02      	cmp	r3, #2
 80233c6:	d901      	bls.n	80233cc <HAL_RCC_OscConfig+0x458>
 80233c8:	2303      	movs	r3, #3
 80233ca:	e009      	b.n	80233e0 <HAL_RCC_OscConfig+0x46c>
 80233cc:	4b07      	ldr	r3, [pc, #28]	; (80233ec <HAL_RCC_OscConfig+0x478>)
 80233ce:	681b      	ldr	r3, [r3, #0]
 80233d0:	f003 7300 	and.w	r3, r3, #33554432	; 0x2000000
 80233d4:	2b00      	cmp	r3, #0
 80233d6:	d1f0      	bne.n	80233ba <HAL_RCC_OscConfig+0x446>
 80233d8:	e001      	b.n	80233de <HAL_RCC_OscConfig+0x46a>
 80233da:	2301      	movs	r3, #1
 80233dc:	e000      	b.n	80233e0 <HAL_RCC_OscConfig+0x46c>
 80233de:	2300      	movs	r3, #0
 80233e0:	4618      	mov	r0, r3
 80233e2:	3718      	adds	r7, #24
 80233e4:	46bd      	mov	sp, r7
 80233e6:	bd80      	pop	{r7, pc}
 80233e8:	40007000 	andmi	r7, r0, r0
 80233ec:	40023800 	andmi	r3, r2, r0, lsl #16
 80233f0:	42470060 	submi	r0, r7, #96	; 0x60

080233f4 <HAL_RCC_ClockConfig>:
 80233f4:	b580      	push	{r7, lr}
 80233f6:	b084      	sub	sp, #16
 80233f8:	af00      	add	r7, sp, #0
 80233fa:	6078      	str	r0, [r7, #4]
 80233fc:	6039      	str	r1, [r7, #0]
 80233fe:	687b      	ldr	r3, [r7, #4]
 8023400:	2b00      	cmp	r3, #0
 8023402:	d101      	bne.n	8023408 <HAL_RCC_ClockConfig+0x14>
 8023404:	2301      	movs	r3, #1
 8023406:	e0ca      	b.n	802359e <HAL_RCC_ClockConfig+0x1aa>
 8023408:	4b67      	ldr	r3, [pc, #412]	; (80235a8 <HAL_RCC_ClockConfig+0x1b4>)
 802340a:	681b      	ldr	r3, [r3, #0]
 802340c:	f003 020f 	and.w	r2, r3, #15
 8023410:	683b      	ldr	r3, [r7, #0]
 8023412:	429a      	cmp	r2, r3
 8023414:	d20c      	bcs.n	8023430 <HAL_RCC_ClockConfig+0x3c>
 8023416:	4b64      	ldr	r3, [pc, #400]	; (80235a8 <HAL_RCC_ClockConfig+0x1b4>)
 8023418:	683a      	ldr	r2, [r7, #0]
 802341a:	b2d2      	uxtb	r2, r2
 802341c:	701a      	strb	r2, [r3, #0]
 802341e:	4b62      	ldr	r3, [pc, #392]	; (80235a8 <HAL_RCC_ClockConfig+0x1b4>)
 8023420:	681b      	ldr	r3, [r3, #0]
 8023422:	f003 020f 	and.w	r2, r3, #15
 8023426:	683b      	ldr	r3, [r7, #0]
 8023428:	429a      	cmp	r2, r3
 802342a:	d001      	beq.n	8023430 <HAL_RCC_ClockConfig+0x3c>
 802342c:	2301      	movs	r3, #1
 802342e:	e0b6      	b.n	802359e <HAL_RCC_ClockConfig+0x1aa>
 8023430:	687b      	ldr	r3, [r7, #4]
 8023432:	681b      	ldr	r3, [r3, #0]
 8023434:	f003 0302 	and.w	r3, r3, #2
 8023438:	2b00      	cmp	r3, #0
 802343a:	d020      	beq.n	802347e <HAL_RCC_ClockConfig+0x8a>
 802343c:	687b      	ldr	r3, [r7, #4]
 802343e:	681b      	ldr	r3, [r3, #0]
 8023440:	f003 0304 	and.w	r3, r3, #4
 8023444:	2b00      	cmp	r3, #0
 8023446:	d005      	beq.n	8023454 <HAL_RCC_ClockConfig+0x60>
 8023448:	4a58      	ldr	r2, [pc, #352]	; (80235ac <HAL_RCC_ClockConfig+0x1b8>)
 802344a:	4b58      	ldr	r3, [pc, #352]	; (80235ac <HAL_RCC_ClockConfig+0x1b8>)
 802344c:	689b      	ldr	r3, [r3, #8]
 802344e:	f443 53e0 	orr.w	r3, r3, #7168	; 0x1c00
 8023452:	6093      	str	r3, [r2, #8]
 8023454:	687b      	ldr	r3, [r7, #4]
 8023456:	681b      	ldr	r3, [r3, #0]
 8023458:	f003 0308 	and.w	r3, r3, #8
 802345c:	2b00      	cmp	r3, #0
 802345e:	d005      	beq.n	802346c <HAL_RCC_ClockConfig+0x78>
 8023460:	4a52      	ldr	r2, [pc, #328]	; (80235ac <HAL_RCC_ClockConfig+0x1b8>)
 8023462:	4b52      	ldr	r3, [pc, #328]	; (80235ac <HAL_RCC_ClockConfig+0x1b8>)
 8023464:	689b      	ldr	r3, [r3, #8]
 8023466:	f443 4360 	orr.w	r3, r3, #57344	; 0xe000
 802346a:	6093      	str	r3, [r2, #8]
 802346c:	494f      	ldr	r1, [pc, #316]	; (80235ac <HAL_RCC_ClockConfig+0x1b8>)
 802346e:	4b4f      	ldr	r3, [pc, #316]	; (80235ac <HAL_RCC_ClockConfig+0x1b8>)
 8023470:	689b      	ldr	r3, [r3, #8]
 8023472:	f023 02f0 	bic.w	r2, r3, #240	; 0xf0
 8023476:	687b      	ldr	r3, [r7, #4]
 8023478:	689b      	ldr	r3, [r3, #8]
 802347a:	4313      	orrs	r3, r2
 802347c:	608b      	str	r3, [r1, #8]
 802347e:	687b      	ldr	r3, [r7, #4]
 8023480:	681b      	ldr	r3, [r3, #0]
 8023482:	f003 0301 	and.w	r3, r3, #1
 8023486:	2b00      	cmp	r3, #0
 8023488:	d044      	beq.n	8023514 <HAL_RCC_ClockConfig+0x120>
 802348a:	687b      	ldr	r3, [r7, #4]
 802348c:	685b      	ldr	r3, [r3, #4]
 802348e:	2b01      	cmp	r3, #1
 8023490:	d107      	bne.n	80234a2 <HAL_RCC_ClockConfig+0xae>
 8023492:	4b46      	ldr	r3, [pc, #280]	; (80235ac <HAL_RCC_ClockConfig+0x1b8>)
 8023494:	681b      	ldr	r3, [r3, #0]
 8023496:	f403 3300 	and.w	r3, r3, #131072	; 0x20000
 802349a:	2b00      	cmp	r3, #0
 802349c:	d119      	bne.n	80234d2 <HAL_RCC_ClockConfig+0xde>
 802349e:	2301      	movs	r3, #1
 80234a0:	e07d      	b.n	802359e <HAL_RCC_ClockConfig+0x1aa>
 80234a2:	687b      	ldr	r3, [r7, #4]
 80234a4:	685b      	ldr	r3, [r3, #4]
 80234a6:	2b02      	cmp	r3, #2
 80234a8:	d003      	beq.n	80234b2 <HAL_RCC_ClockConfig+0xbe>
 80234aa:	687b      	ldr	r3, [r7, #4]
 80234ac:	685b      	ldr	r3, [r3, #4]
 80234ae:	2b03      	cmp	r3, #3
 80234b0:	d107      	bne.n	80234c2 <HAL_RCC_ClockConfig+0xce>
 80234b2:	4b3e      	ldr	r3, [pc, #248]	; (80235ac <HAL_RCC_ClockConfig+0x1b8>)
 80234b4:	681b      	ldr	r3, [r3, #0]
 80234b6:	f003 7300 	and.w	r3, r3, #33554432	; 0x2000000
 80234ba:	2b00      	cmp	r3, #0
 80234bc:	d109      	bne.n	80234d2 <HAL_RCC_ClockConfig+0xde>
 80234be:	2301      	movs	r3, #1
 80234c0:	e06d      	b.n	802359e <HAL_RCC_ClockConfig+0x1aa>
 80234c2:	4b3a      	ldr	r3, [pc, #232]	; (80235ac <HAL_RCC_ClockConfig+0x1b8>)
 80234c4:	681b      	ldr	r3, [r3, #0]
 80234c6:	f003 0302 	and.w	r3, r3, #2
 80234ca:	2b00      	cmp	r3, #0
 80234cc:	d101      	bne.n	80234d2 <HAL_RCC_ClockConfig+0xde>
 80234ce:	2301      	movs	r3, #1
 80234d0:	e065      	b.n	802359e <HAL_RCC_ClockConfig+0x1aa>
 80234d2:	4936      	ldr	r1, [pc, #216]	; (80235ac <HAL_RCC_ClockConfig+0x1b8>)
 80234d4:	4b35      	ldr	r3, [pc, #212]	; (80235ac <HAL_RCC_ClockConfig+0x1b8>)
 80234d6:	689b      	ldr	r3, [r3, #8]
 80234d8:	f023 0203 	bic.w	r2, r3, #3
 80234dc:	687b      	ldr	r3, [r7, #4]
 80234de:	685b      	ldr	r3, [r3, #4]
 80234e0:	4313      	orrs	r3, r2
 80234e2:	608b      	str	r3, [r1, #8]
 80234e4:	f000 fdc4 	bl	8024070 <HAL_GetTick>
 80234e8:	60f8      	str	r0, [r7, #12]
 80234ea:	e00a      	b.n	8023502 <HAL_RCC_ClockConfig+0x10e>
 80234ec:	f000 fdc0 	bl	8024070 <HAL_GetTick>
 80234f0:	4602      	mov	r2, r0
 80234f2:	68fb      	ldr	r3, [r7, #12]
 80234f4:	1ad3      	subs	r3, r2, r3
 80234f6:	f241 3288 	movw	r2, #5000	; 0x1388
 80234fa:	4293      	cmp	r3, r2
 80234fc:	d901      	bls.n	8023502 <HAL_RCC_ClockConfig+0x10e>
 80234fe:	2303      	movs	r3, #3
 8023500:	e04d      	b.n	802359e <HAL_RCC_ClockConfig+0x1aa>
 8023502:	4b2a      	ldr	r3, [pc, #168]	; (80235ac <HAL_RCC_ClockConfig+0x1b8>)
 8023504:	689b      	ldr	r3, [r3, #8]
 8023506:	f003 020c 	and.w	r2, r3, #12
 802350a:	687b      	ldr	r3, [r7, #4]
 802350c:	685b      	ldr	r3, [r3, #4]
 802350e:	009b      	lsls	r3, r3, #2
 8023510:	429a      	cmp	r2, r3
 8023512:	d1eb      	bne.n	80234ec <HAL_RCC_ClockConfig+0xf8>
 8023514:	4b24      	ldr	r3, [pc, #144]	; (80235a8 <HAL_RCC_ClockConfig+0x1b4>)
 8023516:	681b      	ldr	r3, [r3, #0]
 8023518:	f003 020f 	and.w	r2, r3, #15
 802351c:	683b      	ldr	r3, [r7, #0]
 802351e:	429a      	cmp	r2, r3
 8023520:	d90c      	bls.n	802353c <HAL_RCC_ClockConfig+0x148>
 8023522:	4b21      	ldr	r3, [pc, #132]	; (80235a8 <HAL_RCC_ClockConfig+0x1b4>)
 8023524:	683a      	ldr	r2, [r7, #0]
 8023526:	b2d2      	uxtb	r2, r2
 8023528:	701a      	strb	r2, [r3, #0]
 802352a:	4b1f      	ldr	r3, [pc, #124]	; (80235a8 <HAL_RCC_ClockConfig+0x1b4>)
 802352c:	681b      	ldr	r3, [r3, #0]
 802352e:	f003 020f 	and.w	r2, r3, #15
 8023532:	683b      	ldr	r3, [r7, #0]
 8023534:	429a      	cmp	r2, r3
 8023536:	d001      	beq.n	802353c <HAL_RCC_ClockConfig+0x148>
 8023538:	2301      	movs	r3, #1
 802353a:	e030      	b.n	802359e <HAL_RCC_ClockConfig+0x1aa>
 802353c:	687b      	ldr	r3, [r7, #4]
 802353e:	681b      	ldr	r3, [r3, #0]
 8023540:	f003 0304 	and.w	r3, r3, #4
 8023544:	2b00      	cmp	r3, #0
 8023546:	d008      	beq.n	802355a <HAL_RCC_ClockConfig+0x166>
 8023548:	4918      	ldr	r1, [pc, #96]	; (80235ac <HAL_RCC_ClockConfig+0x1b8>)
 802354a:	4b18      	ldr	r3, [pc, #96]	; (80235ac <HAL_RCC_ClockConfig+0x1b8>)
 802354c:	689b      	ldr	r3, [r3, #8]
 802354e:	f423 52e0 	bic.w	r2, r3, #7168	; 0x1c00
 8023552:	687b      	ldr	r3, [r7, #4]
 8023554:	68db      	ldr	r3, [r3, #12]
 8023556:	4313      	orrs	r3, r2
 8023558:	608b      	str	r3, [r1, #8]
 802355a:	687b      	ldr	r3, [r7, #4]
 802355c:	681b      	ldr	r3, [r3, #0]
 802355e:	f003 0308 	and.w	r3, r3, #8
 8023562:	2b00      	cmp	r3, #0
 8023564:	d009      	beq.n	802357a <HAL_RCC_ClockConfig+0x186>
 8023566:	4911      	ldr	r1, [pc, #68]	; (80235ac <HAL_RCC_ClockConfig+0x1b8>)
 8023568:	4b10      	ldr	r3, [pc, #64]	; (80235ac <HAL_RCC_ClockConfig+0x1b8>)
 802356a:	689b      	ldr	r3, [r3, #8]
 802356c:	f423 4260 	bic.w	r2, r3, #57344	; 0xe000
 8023570:	687b      	ldr	r3, [r7, #4]
 8023572:	691b      	ldr	r3, [r3, #16]
 8023574:	00db      	lsls	r3, r3, #3
 8023576:	4313      	orrs	r3, r2
 8023578:	608b      	str	r3, [r1, #8]
 802357a:	f000 f81d 	bl	80235b8 <HAL_RCC_GetSysClockFreq>
 802357e:	4601      	mov	r1, r0
 8023580:	4b0a      	ldr	r3, [pc, #40]	; (80235ac <HAL_RCC_ClockConfig+0x1b8>)
 8023582:	689b      	ldr	r3, [r3, #8]
 8023584:	f003 03f0 	and.w	r3, r3, #240	; 0xf0
 8023588:	091b      	lsrs	r3, r3, #4
 802358a:	4a09      	ldr	r2, [pc, #36]	; (80235b0 <HAL_RCC_ClockConfig+0x1bc>)
 802358c:	5cd3      	ldrb	r3, [r2, r3]
 802358e:	fa21 f303 	lsr.w	r3, r1, r3
 8023592:	4a08      	ldr	r2, [pc, #32]	; (80235b4 <HAL_RCC_ClockConfig+0x1c0>)
